   1               		.file	"droplet_init.c"
   2               	__SP_H__ = 0x3e
   3               	__SP_L__ = 0x3d
   4               	__SREG__ = 0x3f
   5               	__RAMPZ__ = 0x3b
   6               	__CCP__ = 0x34
   7               	__tmp_reg__ = 0
   8               	__zero_reg__ = 1
   9               		.text
  10               	.Ltext0:
  11               		.cfi_sections	.debug_frame
  12               		.section	.text.startup_light_sequence,"ax",@progbits
  13               	.global	startup_light_sequence
  15               	startup_light_sequence:
  16               	.LFB70:
  17               		.file 1 "../src/droplet_init.c"
   1:../src/droplet_init.c **** #include "droplet_init.h"
   2:../src/droplet_init.c **** 
   3:../src/droplet_init.c **** static void init_all_systems(void);
   4:../src/droplet_init.c **** static void calculate_id_number(void);
   5:../src/droplet_init.c **** static void enable_interrupts(void);
   6:../src/droplet_init.c **** static void check_messages(void);
   7:../src/droplet_init.c **** 
   8:../src/droplet_init.c **** /**
   9:../src/droplet_init.c ****  * \brief Initializes all the subsystems for this Droplet. This function MUST be called
  10:../src/droplet_init.c ****  * by the user before using any other functions in the API.
  11:../src/droplet_init.c ****  */ 
  12:../src/droplet_init.c **** static void init_all_systems(void){
  13:../src/droplet_init.c **** 	cli();
  14:../src/droplet_init.c **** 	Config32MHzClock();
  15:../src/droplet_init.c **** 	
  16:../src/droplet_init.c **** 	calculate_id_number();
  17:../src/droplet_init.c **** 	
  18:../src/droplet_init.c **** 	scheduler_init();			INIT_DEBUG_PRINT("SCHEDULER INIT\r\n");
  19:../src/droplet_init.c **** 	pc_comm_init();				INIT_DEBUG_PRINT("PC COM INIT\r\n");
  20:../src/droplet_init.c **** 	rgb_led_init();				INIT_DEBUG_PRINT("LED INIT\r\n");
  21:../src/droplet_init.c **** 	power_init();				INIT_DEBUG_PRINT("POWER INIT\r\n");
  22:../src/droplet_init.c **** 	i2c_init();					INIT_DEBUG_PRINT("I2C INIT\r\n");
  23:../src/droplet_init.c **** 	
  24:../src/droplet_init.c **** 	enable_interrupts();	
  25:../src/droplet_init.c **** 	
  26:../src/droplet_init.c **** 	range_algs_init();			INIT_DEBUG_PRINT("RANGE ALGORITHMS INIT\r\n");
  27:../src/droplet_init.c **** 	rgb_sensor_init();			INIT_DEBUG_PRINT("RGB SENSE INIT\r\n");
  28:../src/droplet_init.c **** 	ir_led_init();				INIT_DEBUG_PRINT("IR LED INIT\r\n");
  29:../src/droplet_init.c **** 	ir_sensor_init();			INIT_DEBUG_PRINT("IR SENSE INIT\r\n");
  30:../src/droplet_init.c **** 	
  31:../src/droplet_init.c **** 	#ifdef AUDIO_DROPLET
  32:../src/droplet_init.c **** 		speaker_init();			INIT_DEBUG_PRINT("SPEAKER INIT\r\n");
  33:../src/droplet_init.c **** 		mic_init();				INIT_DEBUG_PRINT("MIC INIT\r\n"); //Must occur after ir_sensor_init.
  34:../src/droplet_init.c **** 	#endif
  35:../src/droplet_init.c **** 	
  36:../src/droplet_init.c **** 	motor_init();				INIT_DEBUG_PRINT("MOTOR INIT\r\n");
  37:../src/droplet_init.c **** 	random_init();				INIT_DEBUG_PRINT("RAND INIT\r\n"); //This uses adc readings for a random seed, a
  38:../src/droplet_init.c **** 	localization_init();		INIT_DEBUG_PRINT("LOCALIZATION INIT\r\n"); 
  39:../src/droplet_init.c **** 	
  40:../src/droplet_init.c **** 	#ifdef SYNCHRONIZED
  41:../src/droplet_init.c **** 		firefly_sync_init();
  42:../src/droplet_init.c **** 	#endif
  43:../src/droplet_init.c **** 
  44:../src/droplet_init.c **** 
  45:../src/droplet_init.c **** 	set_all_ir_powers(256);
  46:../src/droplet_init.c **** 
  47:../src/droplet_init.c **** 	startup_light_sequence();
  48:../src/droplet_init.c **** 	
  49:../src/droplet_init.c **** 	ir_comm_init();				INIT_DEBUG_PRINT("IR COM INIT\r\n");
  50:../src/droplet_init.c **** }
  51:../src/droplet_init.c **** 
  52:../src/droplet_init.c **** int main(void){
  53:../src/droplet_init.c **** 	init_all_systems();
  54:../src/droplet_init.c **** 	init();
  55:../src/droplet_init.c **** 	while(1){
  56:../src/droplet_init.c **** 		loop();
  57:../src/droplet_init.c **** 		check_messages();
  58:../src/droplet_init.c **** 		if(task_list_check()){
  59:../src/droplet_init.c **** 			printf_P(PSTR("Error! We got ahead of the task list and now nothing will execute.\r\n"));
  60:../src/droplet_init.c **** 			task_list_cleanup();
  61:../src/droplet_init.c **** 		}
  62:../src/droplet_init.c **** 		delay_ms(1);	
  63:../src/droplet_init.c **** 	}
  64:../src/droplet_init.c **** 	return 0;
  65:../src/droplet_init.c **** }
  66:../src/droplet_init.c **** 
  67:../src/droplet_init.c **** /*
  68:../src/droplet_init.c ****  * This function loops through all messages this robot has received since the last call
  69:../src/droplet_init.c ****  * to check messages.
  70:../src/droplet_init.c ****  * For each message, it populates an ir_msg struct and calls handle_msg with it.
  71:../src/droplet_init.c ****  */
  72:../src/droplet_init.c **** static void check_messages(void){
  73:../src/droplet_init.c **** 	ir_msg* msg_struct;	
  74:../src/droplet_init.c **** 	char actual_struct[sizeof(ir_msg)]; //It's like malloc, but on the stack.
  75:../src/droplet_init.c **** 	char actual_msg[IR_BUFFER_SIZE+1];
  76:../src/droplet_init.c **** 	msg_struct = (ir_msg*)actual_struct;
  77:../src/droplet_init.c **** 	msg_struct->msg = actual_msg;
  78:../src/droplet_init.c **** 	uint8_t i;
  79:../src/droplet_init.c **** 	
  80:../src/droplet_init.c **** 	if(user_facing_messages_ovf){
  81:../src/droplet_init.c **** 		num_waiting_msgs=MAX_USER_FACING_MESSAGES;
  82:../src/droplet_init.c **** 		user_facing_messages_ovf=0;
  83:../src/droplet_init.c **** 		printf_P(PSTR("Error: Messages overflow. Too many messages received. Try speeding up your loop if
  84:../src/droplet_init.c **** 	}
  85:../src/droplet_init.c **** 	//if(num_waiting_msgs>0) printf("num_msgs: %hu\r\n",num_waiting_msgs);
  86:../src/droplet_init.c **** 	while(num_waiting_msgs>0){
  87:../src/droplet_init.c **** 		i=num_waiting_msgs-1;
  88:../src/droplet_init.c **** 		//We don't want this block to be interrupted by perform_ir_upkeep because the 
  89:../src/droplet_init.c **** 		//list of messages could get corrupted.
  90:../src/droplet_init.c **** 		ATOMIC_BLOCK(ATOMIC_RESTORESTATE){
  91:../src/droplet_init.c **** 			if(msg_node[i].msg_length==0){
  92:../src/droplet_init.c **** 				printf_P(PSTR("ERROR: Message length 0 for msg_node.\r\n"));
  93:../src/droplet_init.c **** 			}
  94:../src/droplet_init.c **** 			memcpy(msg_struct->msg, (const void*)msg_node[i].msg, msg_node[i].msg_length);
  95:../src/droplet_init.c **** 			msg_struct->arrival_time					= msg_node[i].arrival_time;
  96:../src/droplet_init.c **** 			msg_struct->sender_ID						= msg_node[i].sender_ID;
  97:../src/droplet_init.c **** 			msg_struct->dir_received					= msg_node[i].arrival_dir;
  98:../src/droplet_init.c **** 			msg_struct->length							= msg_node[i].msg_length;
  99:../src/droplet_init.c **** 			msg_struct->wasTargeted						= msg_node[i].wasTargeted;
 100:../src/droplet_init.c **** 			num_waiting_msgs--;
 101:../src/droplet_init.c **** 		}			
 102:../src/droplet_init.c **** 		msg_struct->msg[msg_node[i].msg_length]	= '\0';		
 103:../src/droplet_init.c **** 
 104:../src/droplet_init.c **** 
 105:../src/droplet_init.c **** 
 106:../src/droplet_init.c **** 		handle_msg(msg_struct);
 107:../src/droplet_init.c **** 	}
 108:../src/droplet_init.c **** }
 109:../src/droplet_init.c **** 
 110:../src/droplet_init.c **** static void calculate_id_number(void){
 111:../src/droplet_init.c **** 	INIT_DEBUG_PRINT("get id number\r\n");
 112:../src/droplet_init.c **** 
 113:../src/droplet_init.c **** 	uint32_t pgm_bytes = 0;
 114:../src/droplet_init.c **** 	uint16_t crc = 0;
 115:../src/droplet_init.c **** 	
 116:../src/droplet_init.c **** 	// calculate local id
 117:../src/droplet_init.c **** 	// simply crc of user sig row
 118:../src/droplet_init.c **** 	// likely to be unique and constant for each chip
 119:../src/droplet_init.c **** 	NVM_CMD = NVM_CMD_READ_CALIB_ROW_gc;
 120:../src/droplet_init.c **** 
 121:../src/droplet_init.c **** 	uint32_t addrs[16] = {0x00,0x01,0x02,0x03,0x04,0x08,0x09,0x0A,0x0B,0x0C,0x0D,0x10,0x12,0x13,0x14,0
 122:../src/droplet_init.c **** 
 123:../src/droplet_init.c **** 	for (uint8_t i = 0; i < 16; i++){
 124:../src/droplet_init.c **** 		pgm_bytes = pgm_read_word_far(addrs[i]);
 125:../src/droplet_init.c **** 		crc = _crc16_update(crc, (uint16_t)(pgm_bytes&0xFF));
 126:../src/droplet_init.c **** 	}
 127:../src/droplet_init.c **** 
 128:../src/droplet_init.c **** 	NVM_CMD = NVM_CMD_NO_OPERATION_gc;
 129:../src/droplet_init.c **** 
 130:../src/droplet_init.c **** 	droplet_ID = crc;
 131:../src/droplet_init.c **** }
 132:../src/droplet_init.c **** 
 133:../src/droplet_init.c **** static void enable_interrupts(void){
 134:../src/droplet_init.c **** 	PMIC.CTRL |= PMIC_LOLVLEN_bm;	// enable low level interrupts
 135:../src/droplet_init.c **** 	PMIC.CTRL |= PMIC_MEDLVLEN_bm;	// enable medium level interrupts	(e.g. TXCIF)
 136:../src/droplet_init.c **** 	PMIC.CTRL |= PMIC_HILVLEN_bm;	// enable high level interrupts		(e.g. RTC_OVF)
 137:../src/droplet_init.c **** 	PMIC.CTRL |= PMIC_RREN_bm;
 138:../src/droplet_init.c **** 	sei();
 139:../src/droplet_init.c **** }
 140:../src/droplet_init.c **** 
 141:../src/droplet_init.c **** void startup_light_sequence(){
  18               		.loc 1 141 0
  19               		.cfi_startproc
  20               	/* prologue: function */
  21               	/* frame size = 0 */
  22               	/* stack size = 0 */
  23               	.L__stack_usage = 0
 142:../src/droplet_init.c **** 	set_rgb(100,0,0); delay_ms(100); set_rgb(0,100,0); delay_ms(100); set_rgb(0,0,100); delay_ms(100);
  24               		.loc 1 142 0
  25 0000 40E0      		ldi r20,0
  26 0002 60E0      		ldi r22,0
  27 0004 84E6      		ldi r24,lo8(100)
  28 0006 0E94 0000 		call set_rgb
  29               	.LVL0:
  30 000a 84E6      		ldi r24,lo8(100)
  31 000c 90E0      		ldi r25,0
  32 000e 0E94 0000 		call delay_ms
  33               	.LVL1:
  34 0012 40E0      		ldi r20,0
  35 0014 64E6      		ldi r22,lo8(100)
  36 0016 80E0      		ldi r24,0
  37 0018 0E94 0000 		call set_rgb
  38               	.LVL2:
  39 001c 84E6      		ldi r24,lo8(100)
  40 001e 90E0      		ldi r25,0
  41 0020 0E94 0000 		call delay_ms
  42               	.LVL3:
  43 0024 44E6      		ldi r20,lo8(100)
  44 0026 60E0      		ldi r22,0
  45 0028 80E0      		ldi r24,0
  46 002a 0E94 0000 		call set_rgb
  47               	.LVL4:
  48 002e 84E6      		ldi r24,lo8(100)
  49 0030 90E0      		ldi r25,0
  50 0032 0E94 0000 		call delay_ms
  51               	.LVL5:
  52 0036 0E94 0000 		call led_off
  53               	.LVL6:
 143:../src/droplet_init.c **** 	set_rgb(100,0,0); delay_ms(100); set_rgb(0,100,0); delay_ms(100); set_rgb(0,0,100); delay_ms(100);
  54               		.loc 1 143 0
  55 003a 40E0      		ldi r20,0
  56 003c 60E0      		ldi r22,0
  57 003e 84E6      		ldi r24,lo8(100)
  58 0040 0E94 0000 		call set_rgb
  59               	.LVL7:
  60 0044 84E6      		ldi r24,lo8(100)
  61 0046 90E0      		ldi r25,0
  62 0048 0E94 0000 		call delay_ms
  63               	.LVL8:
  64 004c 40E0      		ldi r20,0
  65 004e 64E6      		ldi r22,lo8(100)
  66 0050 80E0      		ldi r24,0
  67 0052 0E94 0000 		call set_rgb
  68               	.LVL9:
  69 0056 84E6      		ldi r24,lo8(100)
  70 0058 90E0      		ldi r25,0
  71 005a 0E94 0000 		call delay_ms
  72               	.LVL10:
  73 005e 44E6      		ldi r20,lo8(100)
  74 0060 60E0      		ldi r22,0
  75 0062 80E0      		ldi r24,0
  76 0064 0E94 0000 		call set_rgb
  77               	.LVL11:
  78 0068 84E6      		ldi r24,lo8(100)
  79 006a 90E0      		ldi r25,0
  80 006c 0E94 0000 		call delay_ms
  81               	.LVL12:
  82 0070 0E94 0000 		call led_off
  83               	.LVL13:
 144:../src/droplet_init.c **** 	set_rgb(100,0,0); delay_ms(100); set_rgb(0,100,0); delay_ms(100); set_rgb(0,0,100); delay_ms(100);
  84               		.loc 1 144 0
  85 0074 40E0      		ldi r20,0
  86 0076 60E0      		ldi r22,0
  87 0078 84E6      		ldi r24,lo8(100)
  88 007a 0E94 0000 		call set_rgb
  89               	.LVL14:
  90 007e 84E6      		ldi r24,lo8(100)
  91 0080 90E0      		ldi r25,0
  92 0082 0E94 0000 		call delay_ms
  93               	.LVL15:
  94 0086 40E0      		ldi r20,0
  95 0088 64E6      		ldi r22,lo8(100)
  96 008a 80E0      		ldi r24,0
  97 008c 0E94 0000 		call set_rgb
  98               	.LVL16:
  99 0090 84E6      		ldi r24,lo8(100)
 100 0092 90E0      		ldi r25,0
 101 0094 0E94 0000 		call delay_ms
 102               	.LVL17:
 103 0098 44E6      		ldi r20,lo8(100)
 104 009a 60E0      		ldi r22,0
 105 009c 80E0      		ldi r24,0
 106 009e 0E94 0000 		call set_rgb
 107               	.LVL18:
 108 00a2 84E6      		ldi r24,lo8(100)
 109 00a4 90E0      		ldi r25,0
 110 00a6 0E94 0000 		call delay_ms
 111               	.LVL19:
 112 00aa 0C94 0000 		jmp led_off
 113               	.LVL20:
 114               		.cfi_endproc
 115               	.LFE70:
 117               		.section	.rodata
 118               	.LC0:
 119 0000 00        		.byte	0
 120 0001 00        		.byte	0
 121 0002 00        		.byte	0
 122 0003 00        		.byte	0
 123 0004 01        		.byte	1
 124 0005 00        		.byte	0
 125 0006 00        		.byte	0
 126 0007 00        		.byte	0
 127 0008 02        		.byte	2
 128 0009 00        		.byte	0
 129 000a 00        		.byte	0
 130 000b 00        		.byte	0
 131 000c 03        		.byte	3
 132 000d 00        		.byte	0
 133 000e 00        		.byte	0
 134 000f 00        		.byte	0
 135 0010 04        		.byte	4
 136 0011 00        		.byte	0
 137 0012 00        		.byte	0
 138 0013 00        		.byte	0
 139 0014 08        		.byte	8
 140 0015 00        		.byte	0
 141 0016 00        		.byte	0
 142 0017 00        		.byte	0
 143 0018 09        		.byte	9
 144 0019 00        		.byte	0
 145 001a 00        		.byte	0
 146 001b 00        		.byte	0
 147 001c 0A        		.byte	10
 148 001d 00        		.byte	0
 149 001e 00        		.byte	0
 150 001f 00        		.byte	0
 151 0020 0B        		.byte	11
 152 0021 00        		.byte	0
 153 0022 00        		.byte	0
 154 0023 00        		.byte	0
 155 0024 0C        		.byte	12
 156 0025 00        		.byte	0
 157 0026 00        		.byte	0
 158 0027 00        		.byte	0
 159 0028 0D        		.byte	13
 160 0029 00        		.byte	0
 161 002a 00        		.byte	0
 162 002b 00        		.byte	0
 163 002c 10        		.byte	16
 164 002d 00        		.byte	0
 165 002e 00        		.byte	0
 166 002f 00        		.byte	0
 167 0030 12        		.byte	18
 168 0031 00        		.byte	0
 169 0032 00        		.byte	0
 170 0033 00        		.byte	0
 171 0034 13        		.byte	19
 172 0035 00        		.byte	0
 173 0036 00        		.byte	0
 174 0037 00        		.byte	0
 175 0038 14        		.byte	20
 176 0039 00        		.byte	0
 177 003a 00        		.byte	0
 178 003b 00        		.byte	0
 179 003c 15        		.byte	21
 180 003d 00        		.byte	0
 181 003e 00        		.byte	0
 182 003f 00        		.byte	0
 183               		.section	.text.startup.main,"ax",@progbits
 184               	.global	main
 186               	main:
 187               	.LFB66:
  52:../src/droplet_init.c **** 	init_all_systems();
 188               		.loc 1 52 0
 189               		.cfi_startproc
 190 0000 CF93      		push r28
 191               	.LCFI0:
 192               		.cfi_def_cfa_offset 4
 193               		.cfi_offset 28, -3
 194 0002 DF93      		push r29
 195               	.LCFI1:
 196               		.cfi_def_cfa_offset 5
 197               		.cfi_offset 29, -4
 198 0004 CDB7      		in r28,__SP_L__
 199 0006 DEB7      		in r29,__SP_H__
 200               	.LCFI2:
 201               		.cfi_def_cfa_register 28
 202 0008 CB54      		subi r28,75
 203 000a D109      		sbc r29,__zero_reg__
 204               	.LCFI3:
 205               		.cfi_def_cfa_offset 80
 206 000c CDBF      		out __SP_L__,r28
 207 000e DEBF      		out __SP_H__,r29
 208               	/* prologue: function */
 209               	/* frame size = 75 */
 210               	/* stack size = 77 */
 211               	.L__stack_usage = 77
 212               	.LBB42:
 213               	.LBB43:
  13:../src/droplet_init.c **** 	Config32MHzClock();
 214               		.loc 1 13 0
 215               	/* #APP */
 216               	 ;  13 "../src/droplet_init.c" 1
 217 0010 F894      		cli
 218               	 ;  0 "" 2
 219               	/* #NOAPP */
 220               	.LBB44:
 221               	.LBB45:
 222               		.file 2 "../include/droplet_base.h"
   1:../include/droplet_base.h **** #pragma once
   2:../include/droplet_base.h **** 
   3:../include/droplet_base.h **** //#define AUDIO_DROPLET
   4:../include/droplet_base.h **** #define SYNCHRONIZED
   5:../include/droplet_base.h **** 
   6:../include/droplet_base.h **** #include <avr/io.h>
   7:../include/droplet_base.h **** #include <avr/interrupt.h>
   8:../include/droplet_base.h **** #include <util/atomic.h>
   9:../include/droplet_base.h **** #include <util/delay.h>
  10:../include/droplet_base.h **** #include <util/crc16.h>
  11:../include/droplet_base.h **** #include <stdlib.h>
  12:../include/droplet_base.h **** #include <stdio.h>
  13:../include/droplet_base.h **** #include <avr/pgmspace.h>
  14:../include/droplet_base.h **** #include <string.h>
  15:../include/droplet_base.h **** 
  16:../include/droplet_base.h **** typedef uint16_t id_t;
  17:../include/droplet_base.h **** 
  18:../include/droplet_base.h **** //Any #defines needed by other Droplet files
  19:../include/droplet_base.h **** #define DIR0		((uint8_t)0x01)
  20:../include/droplet_base.h **** #define DIR1		((uint8_t)0x02)
  21:../include/droplet_base.h **** #define DIR2		((uint8_t)0x04)
  22:../include/droplet_base.h **** #define DIR3		((uint8_t)0x08)
  23:../include/droplet_base.h **** #define DIR4		((uint8_t)0x10)
  24:../include/droplet_base.h **** #define DIR5		((uint8_t)0x20)
  25:../include/droplet_base.h **** #define ALL_DIRS	((uint8_t)0x3F)
  26:../include/droplet_base.h **** 
  27:../include/droplet_base.h **** #define DIR_NE		DIR0
  28:../include/droplet_base.h **** #define DIR_E		DIR1
  29:../include/droplet_base.h **** #define DIR_SE		DIR2
  30:../include/droplet_base.h **** #define DIR_SW		DIR3
  31:../include/droplet_base.h **** #define DIR_W		DIR4
  32:../include/droplet_base.h **** #define DIR_NW		DIR5
  33:../include/droplet_base.h **** 
  34:../include/droplet_base.h **** id_t droplet_ID;
  35:../include/droplet_base.h **** volatile uint16_t rtc_epoch;
  36:../include/droplet_base.h **** 
  37:../include/droplet_base.h **** // Returns the number of ms elapsed since the last reset. (Defined in droplet_base_asm.s)
  38:../include/droplet_base.h **** uint32_t get_time(void);
  39:../include/droplet_base.h **** 
  40:../include/droplet_base.h **** // Returns this Droplet's unique 16-bit identifier. 0 will never be an identifier.
  41:../include/droplet_base.h **** inline id_t get_droplet_id(void){ 
  42:../include/droplet_base.h **** 	return droplet_ID;
  43:../include/droplet_base.h **** }
  44:../include/droplet_base.h **** 
  45:../include/droplet_base.h **** inline void* myMalloc(size_t size){
  46:../include/droplet_base.h **** 	void* tmp = NULL;
  47:../include/droplet_base.h **** 	ATOMIC_BLOCK(ATOMIC_RESTORESTATE){
  48:../include/droplet_base.h **** 		tmp = malloc(size);
  49:../include/droplet_base.h **** 	}
  50:../include/droplet_base.h **** 	return tmp;
  51:../include/droplet_base.h **** }
  52:../include/droplet_base.h **** 
  53:../include/droplet_base.h **** inline void myFree(void* ptr){
  54:../include/droplet_base.h **** 	ATOMIC_BLOCK(ATOMIC_RESTORESTATE){
  55:../include/droplet_base.h **** 		free(ptr);
  56:../include/droplet_base.h **** 	}
  57:../include/droplet_base.h **** }
  58:../include/droplet_base.h **** 
  59:../include/droplet_base.h **** inline void Config32MHzClock(void){
  60:../include/droplet_base.h **** 	// Set system clock to 32 MHz
  61:../include/droplet_base.h **** 	CCP = CCP_IOREG_gc;
 223               		.loc 2 61 0
 224 0012 88ED      		ldi r24,lo8(-40)
 225 0014 84BF      		out __CCP__,r24
  62:../include/droplet_base.h **** 	OSC.CTRL = OSC_RC32MEN_bm;
 226               		.loc 2 62 0
 227 0016 82E0      		ldi r24,lo8(2)
 228 0018 8093 5000 		sts 80,r24
 229               	.L3:
  63:../include/droplet_base.h **** 	while(!(OSC.STATUS & OSC_RC32MRDY_bm));
 230               		.loc 2 63 0
 231 001c 8091 5100 		lds r24,81
 232 0020 81FF      		sbrs r24,1
 233 0022 00C0      		rjmp .L3
  64:../include/droplet_base.h **** 	CCP = CCP_IOREG_gc;
 234               		.loc 2 64 0
 235 0024 88ED      		ldi r24,lo8(-40)
 236 0026 84BF      		out __CCP__,r24
  65:../include/droplet_base.h **** 	CLK.CTRL = 0x01;
 237               		.loc 2 65 0
 238 0028 81E0      		ldi r24,lo8(1)
 239 002a 8093 4000 		sts 64,r24
  66:../include/droplet_base.h **** 	//OSC.RC32KCAL = PRODSIGNATURES_RCOSC32K;
  67:../include/droplet_base.h **** 	// Set up real-time clock
  68:../include/droplet_base.h **** 	CLK.RTCCTRL = CLK_RTCSRC_RCOSC_gc | CLK_RTCEN_bm;
 240               		.loc 2 68 0
 241 002e 85E0      		ldi r24,lo8(5)
 242 0030 8093 4300 		sts 67,r24
 243               	.L4:
  69:../include/droplet_base.h **** 	//RTC.INTCTRL = RTC_OVFINTLVL_LO_gc;
  70:../include/droplet_base.h **** 	while (RTC.STATUS & RTC_SYNCBUSY_bm);	// wait for SYNCBUSY to clear
 244               		.loc 2 70 0
 245 0034 8091 0104 		lds r24,1025
 246 0038 80FD      		sbrc r24,0
 247 003a 00C0      		rjmp .L4
  71:../include/droplet_base.h **** 	
  72:../include/droplet_base.h **** 	RTC.PER = 0xFFFF;		//(2^16)-1 milliseconds is 65.535 seconds
 248               		.loc 2 72 0
 249 003c 8FEF      		ldi r24,lo8(-1)
 250 003e 9FEF      		ldi r25,lo8(-1)
 251 0040 8093 0A04 		sts 1034,r24
 252 0044 9093 0B04 		sts 1034+1,r25
  73:../include/droplet_base.h **** 	RTC.CTRL = RTC_PRESCALER_DIV1_gc;
 253               		.loc 2 73 0
 254 0048 81E0      		ldi r24,lo8(1)
 255 004a 8093 0004 		sts 1024,r24
 256               	.L5:
  74:../include/droplet_base.h **** 
  75:../include/droplet_base.h **** 	// reset RTC to 0, important for after a reboot:
  76:../include/droplet_base.h **** 	while(RTC.STATUS & RTC_SYNCBUSY_bm);	// wait for SYNCBUSY to clear
 257               		.loc 2 76 0
 258 004e 8091 0104 		lds r24,1025
 259 0052 80FD      		sbrc r24,0
 260 0054 00C0      		rjmp .L5
  77:../include/droplet_base.h **** 	RTC.CNT = 0;
 261               		.loc 2 77 0
 262 0056 1092 0804 		sts 1032,__zero_reg__
 263 005a 1092 0904 		sts 1032+1,__zero_reg__
 264               	.LVL21:
 265               	.LBE45:
 266               	.LBE44:
 267               	.LBB46:
 268               	.LBB47:
 119:../src/droplet_init.c **** 
 269               		.loc 1 119 0
 270 005e 82E0      		ldi r24,lo8(2)
 271 0060 8093 CA01 		sts 458,r24
 121:../src/droplet_init.c **** 
 272               		.loc 1 121 0
 273 0064 80E4      		ldi r24,lo8(64)
 274 0066 E0E0      		ldi r30,lo8(.LC0)
 275 0068 F0E0      		ldi r31,hi8(.LC0)
 276 006a 9E01      		movw r18,r28
 277 006c 2F5F      		subi r18,-1
 278 006e 3F4F      		sbci r19,-1
 279 0070 5901      		movw r10,r18
 280 0072 D901      		movw r26,r18
 281               		0:
 282 0074 0190      		ld r0,Z+
 283 0076 0D92      		st X+,r0
 284 0078 8A95      		dec r24
 285 007a 01F4      		brne 0b
 286               	.LVL22:
 287 007c D901      		movw r26,r18
 288 007e 8E01      		movw r16,r28
 289 0080 0F5B      		subi r16,-65
 290 0082 1F4F      		sbci r17,-1
 114:../src/droplet_init.c **** 	
 291               		.loc 1 114 0
 292 0084 80E0      		ldi r24,0
 293 0086 90E0      		ldi r25,0
 294               	.LVL23:
 295               	.L6:
 296               	.LBB48:
 297               	.LBB49:
 124:../src/droplet_init.c **** 		crc = _crc16_update(crc, (uint16_t)(pgm_bytes&0xFF));
 298               		.loc 1 124 0
 299 0088 4D91      		ld r20,X+
 300 008a 5D91      		ld r21,X+
 301 008c 6D91      		ld r22,X+
 302 008e 7D91      		ld r23,X+
 303               	.LVL24:
 304               	/* #APP */
 305               	 ;  124 "../src/droplet_init.c" 1
 306 0090 6BBF      		out 59, r22
 307 0092 FA01      		movw r30, r20
 308 0094 4791      		elpm r20, Z+
 309 0096 5691      		elpm r21, Z
 310               		
 311               	 ;  0 "" 2
 312               	.LVL25:
 313               	/* #NOAPP */
 314               	.LBE49:
 315               	.LBB50:
 316               	.LBB51:
 317               		.file 3 "c:\\program files (x86)\\atmel\\studio\\7.0\\toolchain\\avr8\\avr8-gnu-toolchain\\avr\\in
   1:c:\program files (x86)\atmel\studio\7.0\toolchain\avr8\avr8-gnu-toolchain\avr\include\util\crc16.h **** /* Copyright (c) 2002, 2003, 2004  Marek Michalkiewicz
   2:c:\program files (x86)\atmel\studio\7.0\toolchain\avr8\avr8-gnu-toolchain\avr\include\util\crc16.h ****    Copyright (c) 2005, 2007 Joerg Wunsch
   3:c:\program files (x86)\atmel\studio\7.0\toolchain\avr8\avr8-gnu-toolchain\avr\include\util\crc16.h ****    Copyright (c) 2013 Dave Hylands
   4:c:\program files (x86)\atmel\studio\7.0\toolchain\avr8\avr8-gnu-toolchain\avr\include\util\crc16.h ****    Copyright (c) 2013 Frederic Nadeau
   5:c:\program files (x86)\atmel\studio\7.0\toolchain\avr8\avr8-gnu-toolchain\avr\include\util\crc16.h ****    All rights reserved.
   6:c:\program files (x86)\atmel\studio\7.0\toolchain\avr8\avr8-gnu-toolchain\avr\include\util\crc16.h **** 
   7:c:\program files (x86)\atmel\studio\7.0\toolchain\avr8\avr8-gnu-toolchain\avr\include\util\crc16.h ****    Redistribution and use in source and binary forms, with or without
   8:c:\program files (x86)\atmel\studio\7.0\toolchain\avr8\avr8-gnu-toolchain\avr\include\util\crc16.h ****    modification, are permitted provided that the following conditions are met:
   9:c:\program files (x86)\atmel\studio\7.0\toolchain\avr8\avr8-gnu-toolchain\avr\include\util\crc16.h **** 
  10:c:\program files (x86)\atmel\studio\7.0\toolchain\avr8\avr8-gnu-toolchain\avr\include\util\crc16.h ****    * Redistributions of source code must retain the above copyright
  11:c:\program files (x86)\atmel\studio\7.0\toolchain\avr8\avr8-gnu-toolchain\avr\include\util\crc16.h ****      notice, this list of conditions and the following disclaimer.
  12:c:\program files (x86)\atmel\studio\7.0\toolchain\avr8\avr8-gnu-toolchain\avr\include\util\crc16.h **** 
  13:c:\program files (x86)\atmel\studio\7.0\toolchain\avr8\avr8-gnu-toolchain\avr\include\util\crc16.h ****    * Redistributions in binary form must reproduce the above copyright
  14:c:\program files (x86)\atmel\studio\7.0\toolchain\avr8\avr8-gnu-toolchain\avr\include\util\crc16.h ****      notice, this list of conditions and the following disclaimer in
  15:c:\program files (x86)\atmel\studio\7.0\toolchain\avr8\avr8-gnu-toolchain\avr\include\util\crc16.h ****      the documentation and/or other materials provided with the
  16:c:\program files (x86)\atmel\studio\7.0\toolchain\avr8\avr8-gnu-toolchain\avr\include\util\crc16.h ****      distribution.
  17:c:\program files (x86)\atmel\studio\7.0\toolchain\avr8\avr8-gnu-toolchain\avr\include\util\crc16.h **** 
  18:c:\program files (x86)\atmel\studio\7.0\toolchain\avr8\avr8-gnu-toolchain\avr\include\util\crc16.h ****    * Neither the name of the copyright holders nor the names of
  19:c:\program files (x86)\atmel\studio\7.0\toolchain\avr8\avr8-gnu-toolchain\avr\include\util\crc16.h ****      contributors may be used to endorse or promote products derived
  20:c:\program files (x86)\atmel\studio\7.0\toolchain\avr8\avr8-gnu-toolchain\avr\include\util\crc16.h ****      from this software without specific prior written permission.
  21:c:\program files (x86)\atmel\studio\7.0\toolchain\avr8\avr8-gnu-toolchain\avr\include\util\crc16.h **** 
  22:c:\program files (x86)\atmel\studio\7.0\toolchain\avr8\avr8-gnu-toolchain\avr\include\util\crc16.h ****   THIS SOFTWARE IS PROVIDED BY THE COPYRIGHT HOLDERS AND CONTRIBUTORS "AS IS"
  23:c:\program files (x86)\atmel\studio\7.0\toolchain\avr8\avr8-gnu-toolchain\avr\include\util\crc16.h ****   AND ANY EXPRESS OR IMPLIED WARRANTIES, INCLUDING, BUT NOT LIMITED TO, THE
  24:c:\program files (x86)\atmel\studio\7.0\toolchain\avr8\avr8-gnu-toolchain\avr\include\util\crc16.h ****   IMPLIED WARRANTIES OF MERCHANTABILITY AND FITNESS FOR A PARTICULAR PURPOSE
  25:c:\program files (x86)\atmel\studio\7.0\toolchain\avr8\avr8-gnu-toolchain\avr\include\util\crc16.h ****   ARE DISCLAIMED. IN NO EVENT SHALL THE COPYRIGHT OWNER OR CONTRIBUTORS BE
  26:c:\program files (x86)\atmel\studio\7.0\toolchain\avr8\avr8-gnu-toolchain\avr\include\util\crc16.h ****   LIABLE FOR ANY DIRECT, INDIRECT, INCIDENTAL, SPECIAL, EXEMPLARY, OR
  27:c:\program files (x86)\atmel\studio\7.0\toolchain\avr8\avr8-gnu-toolchain\avr\include\util\crc16.h ****   CONSEQUENTIAL DAMAGES (INCLUDING, BUT NOT LIMITED TO, PROCUREMENT OF
  28:c:\program files (x86)\atmel\studio\7.0\toolchain\avr8\avr8-gnu-toolchain\avr\include\util\crc16.h ****   SUBSTITUTE GOODS OR SERVICES; LOSS OF USE, DATA, OR PROFITS; OR BUSINESS
  29:c:\program files (x86)\atmel\studio\7.0\toolchain\avr8\avr8-gnu-toolchain\avr\include\util\crc16.h ****   INTERRUPTION) HOWEVER CAUSED AND ON ANY THEORY OF LIABILITY, WHETHER IN
  30:c:\program files (x86)\atmel\studio\7.0\toolchain\avr8\avr8-gnu-toolchain\avr\include\util\crc16.h ****   CONTRACT, STRICT LIABILITY, OR TORT (INCLUDING NEGLIGENCE OR OTHERWISE)
  31:c:\program files (x86)\atmel\studio\7.0\toolchain\avr8\avr8-gnu-toolchain\avr\include\util\crc16.h ****   ARISING IN ANY WAY OUT OF THE USE OF THIS SOFTWARE, EVEN IF ADVISED OF THE
  32:c:\program files (x86)\atmel\studio\7.0\toolchain\avr8\avr8-gnu-toolchain\avr\include\util\crc16.h ****   POSSIBILITY OF SUCH DAMAGE. */
  33:c:\program files (x86)\atmel\studio\7.0\toolchain\avr8\avr8-gnu-toolchain\avr\include\util\crc16.h **** 
  34:c:\program files (x86)\atmel\studio\7.0\toolchain\avr8\avr8-gnu-toolchain\avr\include\util\crc16.h **** /* $Id$ */
  35:c:\program files (x86)\atmel\studio\7.0\toolchain\avr8\avr8-gnu-toolchain\avr\include\util\crc16.h **** 
  36:c:\program files (x86)\atmel\studio\7.0\toolchain\avr8\avr8-gnu-toolchain\avr\include\util\crc16.h **** #ifndef _UTIL_CRC16_H_
  37:c:\program files (x86)\atmel\studio\7.0\toolchain\avr8\avr8-gnu-toolchain\avr\include\util\crc16.h **** #define _UTIL_CRC16_H_
  38:c:\program files (x86)\atmel\studio\7.0\toolchain\avr8\avr8-gnu-toolchain\avr\include\util\crc16.h **** 
  39:c:\program files (x86)\atmel\studio\7.0\toolchain\avr8\avr8-gnu-toolchain\avr\include\util\crc16.h **** #include <stdint.h>
  40:c:\program files (x86)\atmel\studio\7.0\toolchain\avr8\avr8-gnu-toolchain\avr\include\util\crc16.h **** 
  41:c:\program files (x86)\atmel\studio\7.0\toolchain\avr8\avr8-gnu-toolchain\avr\include\util\crc16.h **** /** \file */
  42:c:\program files (x86)\atmel\studio\7.0\toolchain\avr8\avr8-gnu-toolchain\avr\include\util\crc16.h **** /** \defgroup util_crc <util/crc16.h>: CRC Computations
  43:c:\program files (x86)\atmel\studio\7.0\toolchain\avr8\avr8-gnu-toolchain\avr\include\util\crc16.h ****     \code#include <util/crc16.h>\endcode
  44:c:\program files (x86)\atmel\studio\7.0\toolchain\avr8\avr8-gnu-toolchain\avr\include\util\crc16.h **** 
  45:c:\program files (x86)\atmel\studio\7.0\toolchain\avr8\avr8-gnu-toolchain\avr\include\util\crc16.h ****     This header file provides a optimized inline functions for calculating
  46:c:\program files (x86)\atmel\studio\7.0\toolchain\avr8\avr8-gnu-toolchain\avr\include\util\crc16.h ****     cyclic redundancy checks (CRC) using common polynomials.
  47:c:\program files (x86)\atmel\studio\7.0\toolchain\avr8\avr8-gnu-toolchain\avr\include\util\crc16.h **** 
  48:c:\program files (x86)\atmel\studio\7.0\toolchain\avr8\avr8-gnu-toolchain\avr\include\util\crc16.h ****     \par References:
  49:c:\program files (x86)\atmel\studio\7.0\toolchain\avr8\avr8-gnu-toolchain\avr\include\util\crc16.h **** 
  50:c:\program files (x86)\atmel\studio\7.0\toolchain\avr8\avr8-gnu-toolchain\avr\include\util\crc16.h ****     \par
  51:c:\program files (x86)\atmel\studio\7.0\toolchain\avr8\avr8-gnu-toolchain\avr\include\util\crc16.h **** 
  52:c:\program files (x86)\atmel\studio\7.0\toolchain\avr8\avr8-gnu-toolchain\avr\include\util\crc16.h ****     See the Dallas Semiconductor app note 27 for 8051 assembler example and
  53:c:\program files (x86)\atmel\studio\7.0\toolchain\avr8\avr8-gnu-toolchain\avr\include\util\crc16.h ****     general CRC optimization suggestions. The table on the last page of the
  54:c:\program files (x86)\atmel\studio\7.0\toolchain\avr8\avr8-gnu-toolchain\avr\include\util\crc16.h ****     app note is the key to understanding these implementations.
  55:c:\program files (x86)\atmel\studio\7.0\toolchain\avr8\avr8-gnu-toolchain\avr\include\util\crc16.h **** 
  56:c:\program files (x86)\atmel\studio\7.0\toolchain\avr8\avr8-gnu-toolchain\avr\include\util\crc16.h ****     \par
  57:c:\program files (x86)\atmel\studio\7.0\toolchain\avr8\avr8-gnu-toolchain\avr\include\util\crc16.h **** 
  58:c:\program files (x86)\atmel\studio\7.0\toolchain\avr8\avr8-gnu-toolchain\avr\include\util\crc16.h ****     Jack Crenshaw's "Implementing CRCs" article in the January 1992 isue of \e
  59:c:\program files (x86)\atmel\studio\7.0\toolchain\avr8\avr8-gnu-toolchain\avr\include\util\crc16.h ****     Embedded \e Systems \e Programming. This may be difficult to find, but it
  60:c:\program files (x86)\atmel\studio\7.0\toolchain\avr8\avr8-gnu-toolchain\avr\include\util\crc16.h ****     explains CRC's in very clear and concise terms. Well worth the effort to
  61:c:\program files (x86)\atmel\studio\7.0\toolchain\avr8\avr8-gnu-toolchain\avr\include\util\crc16.h ****     obtain a copy.
  62:c:\program files (x86)\atmel\studio\7.0\toolchain\avr8\avr8-gnu-toolchain\avr\include\util\crc16.h **** 
  63:c:\program files (x86)\atmel\studio\7.0\toolchain\avr8\avr8-gnu-toolchain\avr\include\util\crc16.h ****     A typical application would look like:
  64:c:\program files (x86)\atmel\studio\7.0\toolchain\avr8\avr8-gnu-toolchain\avr\include\util\crc16.h **** 
  65:c:\program files (x86)\atmel\studio\7.0\toolchain\avr8\avr8-gnu-toolchain\avr\include\util\crc16.h ****     \code
  66:c:\program files (x86)\atmel\studio\7.0\toolchain\avr8\avr8-gnu-toolchain\avr\include\util\crc16.h ****     // Dallas iButton test vector.
  67:c:\program files (x86)\atmel\studio\7.0\toolchain\avr8\avr8-gnu-toolchain\avr\include\util\crc16.h ****     uint8_t serno[] = { 0x02, 0x1c, 0xb8, 0x01, 0, 0, 0, 0xa2 };
  68:c:\program files (x86)\atmel\studio\7.0\toolchain\avr8\avr8-gnu-toolchain\avr\include\util\crc16.h **** 
  69:c:\program files (x86)\atmel\studio\7.0\toolchain\avr8\avr8-gnu-toolchain\avr\include\util\crc16.h ****     int
  70:c:\program files (x86)\atmel\studio\7.0\toolchain\avr8\avr8-gnu-toolchain\avr\include\util\crc16.h ****     checkcrc(void)
  71:c:\program files (x86)\atmel\studio\7.0\toolchain\avr8\avr8-gnu-toolchain\avr\include\util\crc16.h ****     {
  72:c:\program files (x86)\atmel\studio\7.0\toolchain\avr8\avr8-gnu-toolchain\avr\include\util\crc16.h **** 	uint8_t crc = 0, i;
  73:c:\program files (x86)\atmel\studio\7.0\toolchain\avr8\avr8-gnu-toolchain\avr\include\util\crc16.h **** 
  74:c:\program files (x86)\atmel\studio\7.0\toolchain\avr8\avr8-gnu-toolchain\avr\include\util\crc16.h **** 	for (i = 0; i < sizeof serno / sizeof serno[0]; i++)
  75:c:\program files (x86)\atmel\studio\7.0\toolchain\avr8\avr8-gnu-toolchain\avr\include\util\crc16.h **** 	    crc = _crc_ibutton_update(crc, serno[i]);
  76:c:\program files (x86)\atmel\studio\7.0\toolchain\avr8\avr8-gnu-toolchain\avr\include\util\crc16.h **** 
  77:c:\program files (x86)\atmel\studio\7.0\toolchain\avr8\avr8-gnu-toolchain\avr\include\util\crc16.h **** 	return crc; // must be 0
  78:c:\program files (x86)\atmel\studio\7.0\toolchain\avr8\avr8-gnu-toolchain\avr\include\util\crc16.h ****     }
  79:c:\program files (x86)\atmel\studio\7.0\toolchain\avr8\avr8-gnu-toolchain\avr\include\util\crc16.h ****     \endcode
  80:c:\program files (x86)\atmel\studio\7.0\toolchain\avr8\avr8-gnu-toolchain\avr\include\util\crc16.h **** */
  81:c:\program files (x86)\atmel\studio\7.0\toolchain\avr8\avr8-gnu-toolchain\avr\include\util\crc16.h **** 
  82:c:\program files (x86)\atmel\studio\7.0\toolchain\avr8\avr8-gnu-toolchain\avr\include\util\crc16.h **** /** \ingroup util_crc
  83:c:\program files (x86)\atmel\studio\7.0\toolchain\avr8\avr8-gnu-toolchain\avr\include\util\crc16.h ****     Optimized CRC-16 calculation.
  84:c:\program files (x86)\atmel\studio\7.0\toolchain\avr8\avr8-gnu-toolchain\avr\include\util\crc16.h **** 
  85:c:\program files (x86)\atmel\studio\7.0\toolchain\avr8\avr8-gnu-toolchain\avr\include\util\crc16.h ****     Polynomial: x^16 + x^15 + x^2 + 1 (0xa001)<br>
  86:c:\program files (x86)\atmel\studio\7.0\toolchain\avr8\avr8-gnu-toolchain\avr\include\util\crc16.h ****     Initial value: 0xffff
  87:c:\program files (x86)\atmel\studio\7.0\toolchain\avr8\avr8-gnu-toolchain\avr\include\util\crc16.h **** 
  88:c:\program files (x86)\atmel\studio\7.0\toolchain\avr8\avr8-gnu-toolchain\avr\include\util\crc16.h ****     This CRC is normally used in disk-drive controllers.
  89:c:\program files (x86)\atmel\studio\7.0\toolchain\avr8\avr8-gnu-toolchain\avr\include\util\crc16.h **** 
  90:c:\program files (x86)\atmel\studio\7.0\toolchain\avr8\avr8-gnu-toolchain\avr\include\util\crc16.h ****     The following is the equivalent functionality written in C.
  91:c:\program files (x86)\atmel\studio\7.0\toolchain\avr8\avr8-gnu-toolchain\avr\include\util\crc16.h **** 
  92:c:\program files (x86)\atmel\studio\7.0\toolchain\avr8\avr8-gnu-toolchain\avr\include\util\crc16.h ****     \code
  93:c:\program files (x86)\atmel\studio\7.0\toolchain\avr8\avr8-gnu-toolchain\avr\include\util\crc16.h ****     uint16_t
  94:c:\program files (x86)\atmel\studio\7.0\toolchain\avr8\avr8-gnu-toolchain\avr\include\util\crc16.h ****     crc16_update(uint16_t crc, uint8_t a)
  95:c:\program files (x86)\atmel\studio\7.0\toolchain\avr8\avr8-gnu-toolchain\avr\include\util\crc16.h ****     {
  96:c:\program files (x86)\atmel\studio\7.0\toolchain\avr8\avr8-gnu-toolchain\avr\include\util\crc16.h **** 	int i;
  97:c:\program files (x86)\atmel\studio\7.0\toolchain\avr8\avr8-gnu-toolchain\avr\include\util\crc16.h **** 
  98:c:\program files (x86)\atmel\studio\7.0\toolchain\avr8\avr8-gnu-toolchain\avr\include\util\crc16.h **** 	crc ^= a;
  99:c:\program files (x86)\atmel\studio\7.0\toolchain\avr8\avr8-gnu-toolchain\avr\include\util\crc16.h **** 	for (i = 0; i < 8; ++i)
 100:c:\program files (x86)\atmel\studio\7.0\toolchain\avr8\avr8-gnu-toolchain\avr\include\util\crc16.h **** 	{
 101:c:\program files (x86)\atmel\studio\7.0\toolchain\avr8\avr8-gnu-toolchain\avr\include\util\crc16.h **** 	    if (crc & 1)
 102:c:\program files (x86)\atmel\studio\7.0\toolchain\avr8\avr8-gnu-toolchain\avr\include\util\crc16.h **** 		crc = (crc >> 1) ^ 0xA001;
 103:c:\program files (x86)\atmel\studio\7.0\toolchain\avr8\avr8-gnu-toolchain\avr\include\util\crc16.h **** 	    else
 104:c:\program files (x86)\atmel\studio\7.0\toolchain\avr8\avr8-gnu-toolchain\avr\include\util\crc16.h **** 		crc = (crc >> 1);
 105:c:\program files (x86)\atmel\studio\7.0\toolchain\avr8\avr8-gnu-toolchain\avr\include\util\crc16.h **** 	}
 106:c:\program files (x86)\atmel\studio\7.0\toolchain\avr8\avr8-gnu-toolchain\avr\include\util\crc16.h **** 
 107:c:\program files (x86)\atmel\studio\7.0\toolchain\avr8\avr8-gnu-toolchain\avr\include\util\crc16.h **** 	return crc;
 108:c:\program files (x86)\atmel\studio\7.0\toolchain\avr8\avr8-gnu-toolchain\avr\include\util\crc16.h ****     }
 109:c:\program files (x86)\atmel\studio\7.0\toolchain\avr8\avr8-gnu-toolchain\avr\include\util\crc16.h **** 
 110:c:\program files (x86)\atmel\studio\7.0\toolchain\avr8\avr8-gnu-toolchain\avr\include\util\crc16.h ****     \endcode */
 111:c:\program files (x86)\atmel\studio\7.0\toolchain\avr8\avr8-gnu-toolchain\avr\include\util\crc16.h **** 
 112:c:\program files (x86)\atmel\studio\7.0\toolchain\avr8\avr8-gnu-toolchain\avr\include\util\crc16.h **** static __inline__ uint16_t
 113:c:\program files (x86)\atmel\studio\7.0\toolchain\avr8\avr8-gnu-toolchain\avr\include\util\crc16.h **** _crc16_update(uint16_t __crc, uint8_t __data)
 114:c:\program files (x86)\atmel\studio\7.0\toolchain\avr8\avr8-gnu-toolchain\avr\include\util\crc16.h **** {
 115:c:\program files (x86)\atmel\studio\7.0\toolchain\avr8\avr8-gnu-toolchain\avr\include\util\crc16.h **** 	uint8_t __tmp;
 116:c:\program files (x86)\atmel\studio\7.0\toolchain\avr8\avr8-gnu-toolchain\avr\include\util\crc16.h **** 	uint16_t __ret;
 117:c:\program files (x86)\atmel\studio\7.0\toolchain\avr8\avr8-gnu-toolchain\avr\include\util\crc16.h **** 
 118:c:\program files (x86)\atmel\studio\7.0\toolchain\avr8\avr8-gnu-toolchain\avr\include\util\crc16.h **** 	__asm__ __volatile__ (
 318               		.loc 3 118 0
 319               	/* #APP */
 320               	 ;  118 "c:\program files (x86)\atmel\studio\7.0\toolchain\avr8\avr8-gnu-toolchain\avr\include\util
 321 0098 8427      		eor r24,r20
 322 009a 482F      		mov r20,r24
 323 009c 4295      		swap r20
 324 009e 4827      		eor r20,r24
 325 00a0 042E      		mov __tmp_reg__,r20
 326 00a2 4695      		lsr r20
 327 00a4 4695      		lsr r20
 328 00a6 4025      		eor r20,__tmp_reg__
 329 00a8 042E      		mov __tmp_reg__,r20
 330 00aa 4695      		lsr r20
 331 00ac 4025      		eor r20,__tmp_reg__
 332 00ae 4770      		andi r20,0x07
 333 00b0 082E      		mov __tmp_reg__,r24
 334 00b2 892F      		mov r24,r25
 335 00b4 4695      		lsr r20
 336 00b6 0794      		ror __tmp_reg__
 337 00b8 4795      		ror r20
 338 00ba 902D      		mov r25,__tmp_reg__
 339 00bc 8427      		eor r24,r20
 340 00be 0694      		lsr __tmp_reg__
 341 00c0 4795      		ror r20
 342 00c2 9025      		eor r25,__tmp_reg__
 343 00c4 8427      		eor r24,r20
 344               	 ;  0 "" 2
 345               	.LVL26:
 346               	/* #NOAPP */
 347               	.LBE51:
 348               	.LBE50:
 123:../src/droplet_init.c **** 		pgm_bytes = pgm_read_word_far(addrs[i]);
 349               		.loc 1 123 0
 350 00c6 A017      		cp r26,r16
 351 00c8 B107      		cpc r27,r17
 352 00ca 01F4      		brne .L6
 353               	.LBE48:
 128:../src/droplet_init.c **** 
 354               		.loc 1 128 0
 355 00cc 1092 CA01 		sts 458,__zero_reg__
 356               	.LVL27:
 130:../src/droplet_init.c **** }
 357               		.loc 1 130 0
 358 00d0 8093 0000 		sts droplet_ID,r24
 359 00d4 9093 0000 		sts droplet_ID+1,r25
 360               	.LVL28:
 361               	.LBE47:
 362               	.LBE46:
  18:../src/droplet_init.c **** 	pc_comm_init();				INIT_DEBUG_PRINT("PC COM INIT\r\n");
 363               		.loc 1 18 0
 364 00d8 0E94 0000 		call scheduler_init
 365               	.LVL29:
  19:../src/droplet_init.c **** 	rgb_led_init();				INIT_DEBUG_PRINT("LED INIT\r\n");
 366               		.loc 1 19 0
 367 00dc 0E94 0000 		call pc_comm_init
 368               	.LVL30:
  20:../src/droplet_init.c **** 	power_init();				INIT_DEBUG_PRINT("POWER INIT\r\n");
 369               		.loc 1 20 0
 370 00e0 0E94 0000 		call rgb_led_init
 371               	.LVL31:
  21:../src/droplet_init.c **** 	i2c_init();					INIT_DEBUG_PRINT("I2C INIT\r\n");
 372               		.loc 1 21 0
 373 00e4 0E94 0000 		call power_init
 374               	.LVL32:
  22:../src/droplet_init.c **** 	
 375               		.loc 1 22 0
 376 00e8 0E94 0000 		call i2c_init
 377               	.LVL33:
 378               	.LBB52:
 379               	.LBB53:
 134:../src/droplet_init.c **** 	PMIC.CTRL |= PMIC_MEDLVLEN_bm;	// enable medium level interrupts	(e.g. TXCIF)
 380               		.loc 1 134 0
 381 00ec 8091 A200 		lds r24,162
 382 00f0 8160      		ori r24,lo8(1)
 383 00f2 8093 A200 		sts 162,r24
 135:../src/droplet_init.c **** 	PMIC.CTRL |= PMIC_HILVLEN_bm;	// enable high level interrupts		(e.g. RTC_OVF)
 384               		.loc 1 135 0
 385 00f6 8091 A200 		lds r24,162
 386 00fa 8260      		ori r24,lo8(2)
 387 00fc 8093 A200 		sts 162,r24
 136:../src/droplet_init.c **** 	PMIC.CTRL |= PMIC_RREN_bm;
 388               		.loc 1 136 0
 389 0100 8091 A200 		lds r24,162
 390 0104 8460      		ori r24,lo8(4)
 391 0106 8093 A200 		sts 162,r24
 137:../src/droplet_init.c **** 	sei();
 392               		.loc 1 137 0
 393 010a 8091 A200 		lds r24,162
 394 010e 8068      		ori r24,lo8(-128)
 395 0110 8093 A200 		sts 162,r24
 138:../src/droplet_init.c **** }
 396               		.loc 1 138 0
 397               	/* #APP */
 398               	 ;  138 "../src/droplet_init.c" 1
 399 0114 7894      		sei
 400               	 ;  0 "" 2
 401               	/* #NOAPP */
 402               	.LBE53:
 403               	.LBE52:
  26:../src/droplet_init.c **** 	rgb_sensor_init();			INIT_DEBUG_PRINT("RGB SENSE INIT\r\n");
 404               		.loc 1 26 0
 405 0116 0E94 0000 		call range_algs_init
 406               	.LVL34:
  27:../src/droplet_init.c **** 	ir_led_init();				INIT_DEBUG_PRINT("IR LED INIT\r\n");
 407               		.loc 1 27 0
 408 011a 0E94 0000 		call rgb_sensor_init
 409               	.LVL35:
  28:../src/droplet_init.c **** 	ir_sensor_init();			INIT_DEBUG_PRINT("IR SENSE INIT\r\n");
 410               		.loc 1 28 0
 411 011e 0E94 0000 		call ir_led_init
 412               	.LVL36:
  29:../src/droplet_init.c **** 	
 413               		.loc 1 29 0
 414 0122 0E94 0000 		call ir_sensor_init
 415               	.LVL37:
  36:../src/droplet_init.c **** 	random_init();				INIT_DEBUG_PRINT("RAND INIT\r\n"); //This uses adc readings for a random seed, a
 416               		.loc 1 36 0
 417 0126 0E94 0000 		call motor_init
 418               	.LVL38:
  37:../src/droplet_init.c **** 	localization_init();		INIT_DEBUG_PRINT("LOCALIZATION INIT\r\n"); 
 419               		.loc 1 37 0
 420 012a 0E94 0000 		call random_init
 421               	.LVL39:
  38:../src/droplet_init.c **** 	
 422               		.loc 1 38 0
 423 012e 0E94 0000 		call localization_init
 424               	.LVL40:
  41:../src/droplet_init.c **** 	#endif
 425               		.loc 1 41 0
 426 0132 0E94 0000 		call firefly_sync_init
 427               	.LVL41:
  45:../src/droplet_init.c **** 
 428               		.loc 1 45 0
 429 0136 80E0      		ldi r24,0
 430 0138 91E0      		ldi r25,lo8(1)
 431 013a 0E94 0000 		call set_all_ir_powers
 432               	.LVL42:
  47:../src/droplet_init.c **** 	
 433               		.loc 1 47 0
 434 013e 0E94 0000 		call startup_light_sequence
 435               	.LVL43:
  49:../src/droplet_init.c **** }
 436               		.loc 1 49 0
 437 0142 0E94 0000 		call ir_comm_init
 438               	.LVL44:
 439               	.LBE43:
 440               	.LBE42:
  54:../src/droplet_init.c **** 	while(1){
 441               		.loc 1 54 0
 442 0146 0E94 0000 		call init
 443               	.LVL45:
 444               	.LBB54:
 445               	.LBB55:
  81:../src/droplet_init.c **** 		user_facing_messages_ovf=0;
 446               		.loc 1 81 0
 447 014a 86E0      		ldi r24,lo8(6)
 448 014c 382E      		mov r3,r24
  83:../src/droplet_init.c **** 	}
 449               		.loc 1 83 0
 450 014e 90E0      		ldi r25,lo8(__c.5440)
 451 0150 892E      		mov r8,r25
 452 0152 90E0      		ldi r25,hi8(__c.5440)
 453 0154 992E      		mov r9,r25
 454               	.LBB56:
  91:../src/droplet_init.c **** 				printf_P(PSTR("ERROR: Message length 0 for msg_node.\r\n"));
 455               		.loc 1 91 0
 456 0156 21E3      		ldi r18,lo8(49)
 457 0158 522E      		mov r5,r18
  92:../src/droplet_init.c **** 			}
 458               		.loc 1 92 0
 459 015a 30E0      		ldi r19,lo8(__c.5444)
 460 015c C32E      		mov r12,r19
 461 015e 30E0      		ldi r19,hi8(__c.5444)
 462 0160 D32E      		mov r13,r19
 463               	.LBE56:
 464               	.LBE55:
 465               	.LBE54:
  59:../src/droplet_init.c **** 			task_list_cleanup();
 466               		.loc 1 59 0
 467 0162 40E0      		ldi r20,lo8(__c.5430)
 468 0164 642E      		mov r6,r20
 469 0166 40E0      		ldi r20,hi8(__c.5430)
 470 0168 742E      		mov r7,r20
 471               	.L14:
  56:../src/droplet_init.c **** 		check_messages();
 472               		.loc 1 56 0
 473 016a 0E94 0000 		call loop
 474               	.LVL46:
 475               	.LBB65:
 476               	.LBB63:
  77:../src/droplet_init.c **** 	uint8_t i;
 477               		.loc 1 77 0
 478 016e D801      		movw r26,r16
 479 0170 1696      		adiw r26,6
 480 0172 AD92      		st X+,r10
 481 0174 BC92      		st X,r11
 482 0176 1797      		sbiw r26,6+1
  80:../src/droplet_init.c **** 		num_waiting_msgs=MAX_USER_FACING_MESSAGES;
 483               		.loc 1 80 0
 484 0178 8091 0000 		lds r24,user_facing_messages_ovf
 485 017c 8823      		tst r24
 486 017e 01F4      		brne .+2
 487 0180 00C0      		rjmp .L26
 488 0182 00C0      		rjmp .L30
 489               	.LVL47:
 490               	.L11:
 491               	.LBB61:
  94:../src/droplet_init.c **** 			msg_struct->arrival_time					= msg_node[i].arrival_time;
 492               		.loc 1 94 0
 493 0184 5E9C      		mul r5,r14
 494 0186 B001      		movw r22,r0
 495 0188 5F9C      		mul r5,r15
 496 018a 700D      		add r23,r0
 497 018c 1124      		clr __zero_reg__
 498 018e FB01      		movw r30,r22
 499 0190 E050      		subi r30,lo8(-(msg_node))
 500 0192 F040      		sbci r31,hi8(-(msg_node))
 501 0194 7F01      		movw r14,r30
 502               	.LVL48:
 503 0196 47A5      		ldd r20,Z+47
 504 0198 50E0      		ldi r21,0
 505 019a 6050      		subi r22,lo8(-(msg_node+6))
 506 019c 7040      		sbci r23,hi8(-(msg_node+6))
 507 019e D801      		movw r26,r16
 508 01a0 1696      		adiw r26,6
 509 01a2 8D91      		ld r24,X+
 510 01a4 9C91      		ld r25,X
 511 01a6 1797      		sbiw r26,6+1
 512 01a8 0E94 0000 		call memcpy
 513               	.LVL49:
  95:../src/droplet_init.c **** 			msg_struct->sender_ID						= msg_node[i].sender_ID;
 514               		.loc 1 95 0
 515 01ac F701      		movw r30,r14
 516 01ae 8081      		ld r24,Z
 517 01b0 9181      		ldd r25,Z+1
 518 01b2 A281      		ldd r26,Z+2
 519 01b4 B381      		ldd r27,Z+3
 520 01b6 F801      		movw r30,r16
 521 01b8 8083      		st Z,r24
 522 01ba 9183      		std Z+1,r25
 523 01bc A283      		std Z+2,r26
 524 01be B383      		std Z+3,r27
  96:../src/droplet_init.c **** 			msg_struct->dir_received					= msg_node[i].arrival_dir;
 525               		.loc 1 96 0
 526 01c0 D701      		movw r26,r14
 527 01c2 1496      		adiw r26,4
 528 01c4 8D91      		ld r24,X+
 529 01c6 9C91      		ld r25,X
 530 01c8 1597      		sbiw r26,4+1
 531 01ca 8483      		std Z+4,r24
 532 01cc 9583      		std Z+5,r25
  97:../src/droplet_init.c **** 			msg_struct->length							= msg_node[i].msg_length;
 533               		.loc 1 97 0
 534 01ce 9E96      		adiw r26,46
 535 01d0 8C91      		ld r24,X
 536 01d2 9E97      		sbiw r26,46
 537 01d4 8087      		std Z+8,r24
  98:../src/droplet_init.c **** 			msg_struct->wasTargeted						= msg_node[i].wasTargeted;
 538               		.loc 1 98 0
 539 01d6 9F96      		adiw r26,47
 540 01d8 8C91      		ld r24,X
 541 01da 9F97      		sbiw r26,47
 542 01dc 8187      		std Z+9,r24
  99:../src/droplet_init.c **** 			num_waiting_msgs--;
 543               		.loc 1 99 0
 544 01de D096      		adiw r26,48
 545 01e0 8C91      		ld r24,X
 546 01e2 8287      		std Z+10,r24
 100:../src/droplet_init.c **** 		}			
 547               		.loc 1 100 0
 548 01e4 8091 0000 		lds r24,num_waiting_msgs
 549 01e8 8150      		subi r24,lo8(-(-1))
 550 01ea 8093 0000 		sts num_waiting_msgs,r24
 551               	.LVL50:
 552               	.LBB57:
 553               	.LBB58:
 554               		.file 4 "c:\\program files (x86)\\atmel\\studio\\7.0\\toolchain\\avr8\\avr8-gnu-toolchain\\avr\\in
   1:c:\program files (x86)\atmel\studio\7.0\toolchain\avr8\avr8-gnu-toolchain\avr\include\util\atomic.h **** /* Copyright (c) 2007 Dean Camera
   2:c:\program files (x86)\atmel\studio\7.0\toolchain\avr8\avr8-gnu-toolchain\avr\include\util\atomic.h ****    All rights reserved.
   3:c:\program files (x86)\atmel\studio\7.0\toolchain\avr8\avr8-gnu-toolchain\avr\include\util\atomic.h **** 
   4:c:\program files (x86)\atmel\studio\7.0\toolchain\avr8\avr8-gnu-toolchain\avr\include\util\atomic.h ****    Redistribution and use in source and binary forms, with or without
   5:c:\program files (x86)\atmel\studio\7.0\toolchain\avr8\avr8-gnu-toolchain\avr\include\util\atomic.h ****    modification, are permitted provided that the following conditions are met:
   6:c:\program files (x86)\atmel\studio\7.0\toolchain\avr8\avr8-gnu-toolchain\avr\include\util\atomic.h **** 
   7:c:\program files (x86)\atmel\studio\7.0\toolchain\avr8\avr8-gnu-toolchain\avr\include\util\atomic.h ****    * Redistributions of source code must retain the above copyright
   8:c:\program files (x86)\atmel\studio\7.0\toolchain\avr8\avr8-gnu-toolchain\avr\include\util\atomic.h ****      notice, this list of conditions and the following disclaimer.
   9:c:\program files (x86)\atmel\studio\7.0\toolchain\avr8\avr8-gnu-toolchain\avr\include\util\atomic.h **** 
  10:c:\program files (x86)\atmel\studio\7.0\toolchain\avr8\avr8-gnu-toolchain\avr\include\util\atomic.h ****    * Redistributions in binary form must reproduce the above copyright
  11:c:\program files (x86)\atmel\studio\7.0\toolchain\avr8\avr8-gnu-toolchain\avr\include\util\atomic.h ****      notice, this list of conditions and the following disclaimer in
  12:c:\program files (x86)\atmel\studio\7.0\toolchain\avr8\avr8-gnu-toolchain\avr\include\util\atomic.h ****      the documentation and/or other materials provided with the
  13:c:\program files (x86)\atmel\studio\7.0\toolchain\avr8\avr8-gnu-toolchain\avr\include\util\atomic.h ****      distribution.
  14:c:\program files (x86)\atmel\studio\7.0\toolchain\avr8\avr8-gnu-toolchain\avr\include\util\atomic.h **** 
  15:c:\program files (x86)\atmel\studio\7.0\toolchain\avr8\avr8-gnu-toolchain\avr\include\util\atomic.h ****    * Neither the name of the copyright holders nor the names of
  16:c:\program files (x86)\atmel\studio\7.0\toolchain\avr8\avr8-gnu-toolchain\avr\include\util\atomic.h ****      contributors may be used to endorse or promote products derived
  17:c:\program files (x86)\atmel\studio\7.0\toolchain\avr8\avr8-gnu-toolchain\avr\include\util\atomic.h ****      from this software without specific prior written permission.
  18:c:\program files (x86)\atmel\studio\7.0\toolchain\avr8\avr8-gnu-toolchain\avr\include\util\atomic.h **** 
  19:c:\program files (x86)\atmel\studio\7.0\toolchain\avr8\avr8-gnu-toolchain\avr\include\util\atomic.h ****   THIS SOFTWARE IS PROVIDED BY THE COPYRIGHT HOLDERS AND CONTRIBUTORS "AS IS"
  20:c:\program files (x86)\atmel\studio\7.0\toolchain\avr8\avr8-gnu-toolchain\avr\include\util\atomic.h ****   AND ANY EXPRESS OR IMPLIED WARRANTIES, INCLUDING, BUT NOT LIMITED TO, THE
  21:c:\program files (x86)\atmel\studio\7.0\toolchain\avr8\avr8-gnu-toolchain\avr\include\util\atomic.h ****   IMPLIED WARRANTIES OF MERCHANTABILITY AND FITNESS FOR A PARTICULAR PURPOSE
  22:c:\program files (x86)\atmel\studio\7.0\toolchain\avr8\avr8-gnu-toolchain\avr\include\util\atomic.h ****   ARE DISCLAIMED. IN NO EVENT SHALL THE COPYRIGHT OWNER OR CONTRIBUTORS BE
  23:c:\program files (x86)\atmel\studio\7.0\toolchain\avr8\avr8-gnu-toolchain\avr\include\util\atomic.h ****   LIABLE FOR ANY DIRECT, INDIRECT, INCIDENTAL, SPECIAL, EXEMPLARY, OR
  24:c:\program files (x86)\atmel\studio\7.0\toolchain\avr8\avr8-gnu-toolchain\avr\include\util\atomic.h ****   CONSEQUENTIAL DAMAGES (INCLUDING, BUT NOT LIMITED TO, PROCUREMENT OF
  25:c:\program files (x86)\atmel\studio\7.0\toolchain\avr8\avr8-gnu-toolchain\avr\include\util\atomic.h ****   SUBSTITUTE GOODS OR SERVICES; LOSS OF USE, DATA, OR PROFITS; OR BUSINESS
  26:c:\program files (x86)\atmel\studio\7.0\toolchain\avr8\avr8-gnu-toolchain\avr\include\util\atomic.h ****   INTERRUPTION) HOWEVER CAUSED AND ON ANY THEORY OF LIABILITY, WHETHER IN
  27:c:\program files (x86)\atmel\studio\7.0\toolchain\avr8\avr8-gnu-toolchain\avr\include\util\atomic.h ****   CONTRACT, STRICT LIABILITY, OR TORT (INCLUDING NEGLIGENCE OR OTHERWISE)
  28:c:\program files (x86)\atmel\studio\7.0\toolchain\avr8\avr8-gnu-toolchain\avr\include\util\atomic.h ****   ARISING IN ANY WAY OUT OF THE USE OF THIS SOFTWARE, EVEN IF ADVISED OF THE
  29:c:\program files (x86)\atmel\studio\7.0\toolchain\avr8\avr8-gnu-toolchain\avr\include\util\atomic.h ****   POSSIBILITY OF SUCH DAMAGE.
  30:c:\program files (x86)\atmel\studio\7.0\toolchain\avr8\avr8-gnu-toolchain\avr\include\util\atomic.h **** */
  31:c:\program files (x86)\atmel\studio\7.0\toolchain\avr8\avr8-gnu-toolchain\avr\include\util\atomic.h **** 
  32:c:\program files (x86)\atmel\studio\7.0\toolchain\avr8\avr8-gnu-toolchain\avr\include\util\atomic.h **** /* $Id$ */
  33:c:\program files (x86)\atmel\studio\7.0\toolchain\avr8\avr8-gnu-toolchain\avr\include\util\atomic.h **** 
  34:c:\program files (x86)\atmel\studio\7.0\toolchain\avr8\avr8-gnu-toolchain\avr\include\util\atomic.h **** #ifndef _UTIL_ATOMIC_H_
  35:c:\program files (x86)\atmel\studio\7.0\toolchain\avr8\avr8-gnu-toolchain\avr\include\util\atomic.h **** #define _UTIL_ATOMIC_H_ 1
  36:c:\program files (x86)\atmel\studio\7.0\toolchain\avr8\avr8-gnu-toolchain\avr\include\util\atomic.h **** 
  37:c:\program files (x86)\atmel\studio\7.0\toolchain\avr8\avr8-gnu-toolchain\avr\include\util\atomic.h **** #include <avr/io.h>
  38:c:\program files (x86)\atmel\studio\7.0\toolchain\avr8\avr8-gnu-toolchain\avr\include\util\atomic.h **** #include <avr/interrupt.h>
  39:c:\program files (x86)\atmel\studio\7.0\toolchain\avr8\avr8-gnu-toolchain\avr\include\util\atomic.h **** 
  40:c:\program files (x86)\atmel\studio\7.0\toolchain\avr8\avr8-gnu-toolchain\avr\include\util\atomic.h **** #if !defined(__DOXYGEN__)
  41:c:\program files (x86)\atmel\studio\7.0\toolchain\avr8\avr8-gnu-toolchain\avr\include\util\atomic.h **** /* Internal helper functions. */
  42:c:\program files (x86)\atmel\studio\7.0\toolchain\avr8\avr8-gnu-toolchain\avr\include\util\atomic.h **** static __inline__ uint8_t __iSeiRetVal(void)
  43:c:\program files (x86)\atmel\studio\7.0\toolchain\avr8\avr8-gnu-toolchain\avr\include\util\atomic.h **** {
  44:c:\program files (x86)\atmel\studio\7.0\toolchain\avr8\avr8-gnu-toolchain\avr\include\util\atomic.h ****     sei();
  45:c:\program files (x86)\atmel\studio\7.0\toolchain\avr8\avr8-gnu-toolchain\avr\include\util\atomic.h ****     return 1;
  46:c:\program files (x86)\atmel\studio\7.0\toolchain\avr8\avr8-gnu-toolchain\avr\include\util\atomic.h **** }
  47:c:\program files (x86)\atmel\studio\7.0\toolchain\avr8\avr8-gnu-toolchain\avr\include\util\atomic.h **** 
  48:c:\program files (x86)\atmel\studio\7.0\toolchain\avr8\avr8-gnu-toolchain\avr\include\util\atomic.h **** static __inline__ uint8_t __iCliRetVal(void)
  49:c:\program files (x86)\atmel\studio\7.0\toolchain\avr8\avr8-gnu-toolchain\avr\include\util\atomic.h **** {
  50:c:\program files (x86)\atmel\studio\7.0\toolchain\avr8\avr8-gnu-toolchain\avr\include\util\atomic.h ****     cli();
  51:c:\program files (x86)\atmel\studio\7.0\toolchain\avr8\avr8-gnu-toolchain\avr\include\util\atomic.h ****     return 1;
  52:c:\program files (x86)\atmel\studio\7.0\toolchain\avr8\avr8-gnu-toolchain\avr\include\util\atomic.h **** }
  53:c:\program files (x86)\atmel\studio\7.0\toolchain\avr8\avr8-gnu-toolchain\avr\include\util\atomic.h **** 
  54:c:\program files (x86)\atmel\studio\7.0\toolchain\avr8\avr8-gnu-toolchain\avr\include\util\atomic.h **** static __inline__ void __iSeiParam(const uint8_t *__s)
  55:c:\program files (x86)\atmel\studio\7.0\toolchain\avr8\avr8-gnu-toolchain\avr\include\util\atomic.h **** {
  56:c:\program files (x86)\atmel\studio\7.0\toolchain\avr8\avr8-gnu-toolchain\avr\include\util\atomic.h ****     sei();
  57:c:\program files (x86)\atmel\studio\7.0\toolchain\avr8\avr8-gnu-toolchain\avr\include\util\atomic.h ****     __asm__ volatile ("" ::: "memory");
  58:c:\program files (x86)\atmel\studio\7.0\toolchain\avr8\avr8-gnu-toolchain\avr\include\util\atomic.h ****     (void)__s;
  59:c:\program files (x86)\atmel\studio\7.0\toolchain\avr8\avr8-gnu-toolchain\avr\include\util\atomic.h **** }
  60:c:\program files (x86)\atmel\studio\7.0\toolchain\avr8\avr8-gnu-toolchain\avr\include\util\atomic.h **** 
  61:c:\program files (x86)\atmel\studio\7.0\toolchain\avr8\avr8-gnu-toolchain\avr\include\util\atomic.h **** static __inline__ void __iCliParam(const uint8_t *__s)
  62:c:\program files (x86)\atmel\studio\7.0\toolchain\avr8\avr8-gnu-toolchain\avr\include\util\atomic.h **** {
  63:c:\program files (x86)\atmel\studio\7.0\toolchain\avr8\avr8-gnu-toolchain\avr\include\util\atomic.h ****     cli();
  64:c:\program files (x86)\atmel\studio\7.0\toolchain\avr8\avr8-gnu-toolchain\avr\include\util\atomic.h ****     __asm__ volatile ("" ::: "memory");
  65:c:\program files (x86)\atmel\studio\7.0\toolchain\avr8\avr8-gnu-toolchain\avr\include\util\atomic.h ****     (void)__s;
  66:c:\program files (x86)\atmel\studio\7.0\toolchain\avr8\avr8-gnu-toolchain\avr\include\util\atomic.h **** }
  67:c:\program files (x86)\atmel\studio\7.0\toolchain\avr8\avr8-gnu-toolchain\avr\include\util\atomic.h **** 
  68:c:\program files (x86)\atmel\studio\7.0\toolchain\avr8\avr8-gnu-toolchain\avr\include\util\atomic.h **** static __inline__ void __iRestore(const  uint8_t *__s)
  69:c:\program files (x86)\atmel\studio\7.0\toolchain\avr8\avr8-gnu-toolchain\avr\include\util\atomic.h **** {
  70:c:\program files (x86)\atmel\studio\7.0\toolchain\avr8\avr8-gnu-toolchain\avr\include\util\atomic.h ****     SREG = *__s;
 555               		.loc 4 70 0
 556 01ee 4FBE      		out __SREG__,r4
  71:c:\program files (x86)\atmel\studio\7.0\toolchain\avr8\avr8-gnu-toolchain\avr\include\util\atomic.h ****     __asm__ volatile ("" ::: "memory");
 557               		.loc 4 71 0
 558               	.LVL51:
 559               	.LBE58:
 560               	.LBE57:
 561               	.LBE61:
 102:../src/droplet_init.c **** 
 562               		.loc 1 102 0
 563 01f0 F701      		movw r30,r14
 564 01f2 87A5      		ldd r24,Z+47
 565 01f4 D801      		movw r26,r16
 566 01f6 1696      		adiw r26,6
 567 01f8 ED91      		ld r30,X+
 568 01fa FC91      		ld r31,X
 569 01fc 1797      		sbiw r26,6+1
 570 01fe E80F      		add r30,r24
 571 0200 F11D      		adc r31,__zero_reg__
 572 0202 1082      		st Z,__zero_reg__
 106:../src/droplet_init.c **** 	}
 573               		.loc 1 106 0
 574 0204 C801      		movw r24,r16
 575 0206 0E94 0000 		call handle_msg
 576               	.LVL52:
 577               	.L26:
  86:../src/droplet_init.c **** 		i=num_waiting_msgs-1;
 578               		.loc 1 86 0
 579 020a 8091 0000 		lds r24,num_waiting_msgs
 580 020e 8823      		tst r24
 581 0210 01F0      		breq .L31
  87:../src/droplet_init.c **** 		//We don't want this block to be interrupted by perform_ir_upkeep because the 
 582               		.loc 1 87 0
 583 0212 E090 0000 		lds r14,num_waiting_msgs
 584               	.LVL53:
 585               	.LBB62:
  90:../src/droplet_init.c **** 			if(msg_node[i].msg_length==0){
 586               		.loc 1 90 0
 587 0216 4FB6      		in r4,__SREG__
 588               	.LVL54:
 589               	.LBB59:
 590               	.LBB60:
  50:c:\program files (x86)\atmel\studio\7.0\toolchain\avr8\avr8-gnu-toolchain\avr\include\util\atomic.h ****     return 1;
 591               		.loc 4 50 0
 592               	/* #APP */
 593               	 ;  50 "c:\program files (x86)\atmel\studio\7.0\toolchain\avr8\avr8-gnu-toolchain\avr\include\util\
 594 0218 F894      		cli
 595               	 ;  0 "" 2
 596               	.LVL55:
 597               	/* #NOAPP */
 598               	.LBE60:
 599               	.LBE59:
  91:../src/droplet_init.c **** 				printf_P(PSTR("ERROR: Message length 0 for msg_node.\r\n"));
 600               		.loc 1 91 0
 601 021a EA94      		dec r14
 602               	.LVL56:
 603 021c F12C      		mov r15,__zero_reg__
 604 021e 5E9C      		mul r5,r14
 605 0220 F001      		movw r30,r0
 606 0222 5F9C      		mul r5,r15
 607 0224 F00D      		add r31,r0
 608 0226 1124      		clr __zero_reg__
 609 0228 E050      		subi r30,lo8(-(msg_node))
 610 022a F040      		sbci r31,hi8(-(msg_node))
 611 022c 87A5      		ldd r24,Z+47
 612 022e 8111      		cpse r24,__zero_reg__
 613 0230 00C0      		rjmp .L11
  92:../src/droplet_init.c **** 			}
 614               		.loc 1 92 0
 615 0232 DF92      		push r13
 616 0234 CF92      		push r12
 617 0236 0E94 0000 		call printf_P
 618               	.LVL57:
 619 023a 0F90      		pop __tmp_reg__
 620 023c 0F90      		pop __tmp_reg__
 621 023e 00C0      		rjmp .L11
 622               	.LVL58:
 623               	.L31:
 624               	.LBE62:
 625               	.LBE63:
 626               	.LBE65:
 627               	.LBB66:
 628               	.LBB67:
 629               		.file 5 "../include/scheduler.h"
   1:../include/scheduler.h **** #pragma once
   2:../include/scheduler.h **** 
   3:../include/scheduler.h **** #include "droplet_base.h"
   4:../include/scheduler.h **** #include "rgb_led.h"
   5:../include/scheduler.h **** 
   6:../include/scheduler.h **** #define RTC_COMP_INT_LEVEL RTC_COMPINTLVL_LO_gc;
   7:../include/scheduler.h **** #define MAX_NUM_SCHEDULED_TASKS 10
   8:../include/scheduler.h **** #define MIN_TASK_TIME_IN_FUTURE 20
   9:../include/scheduler.h **** 
  10:../include/scheduler.h **** typedef void (*arg_func_t)(void*);
  11:../include/scheduler.h **** typedef void (*noarg_func_t)(void);
  12:../include/scheduler.h **** 
  13:../include/scheduler.h **** typedef union __attribute__ ((__transparent_union__)) flex_function_union
  14:../include/scheduler.h **** {
  15:../include/scheduler.h **** 	arg_func_t arg_function;
  16:../include/scheduler.h **** 	noarg_func_t noarg_func;
  17:../include/scheduler.h **** } flex_function;
  18:../include/scheduler.h **** 
  19:../include/scheduler.h **** // A task is a function, possibly with an argument, to be called at a specific time
  20:../include/scheduler.h **** // scheduled_time is the 32-bit global time when the function should be called
  21:../include/scheduler.h **** // task_function is the function to call. Its prototype must be "void foo(void *arg)"
  22:../include/scheduler.h **** // arg is the argument to pass to task_function.  arg must be typecast to a void*
  23:../include/scheduler.h **** // next is a pointer to the next task to be executed, after this one
  24:../include/scheduler.h **** typedef struct task{
  25:../include/scheduler.h **** 	uint32_t scheduled_time;
  26:../include/scheduler.h **** 	uint32_t period;
  27:../include/scheduler.h **** 	flex_function func;
  28:../include/scheduler.h **** 	void* arg;
  29:../include/scheduler.h **** 	volatile struct task* next;
  30:../include/scheduler.h **** } Task_t;
  31:../include/scheduler.h **** 
  32:../include/scheduler.h **** // Global task list
  33:../include/scheduler.h **** // Linked list of tasks, sorted by time until execution
  34:../include/scheduler.h **** volatile Task_t *task_list;
  35:../include/scheduler.h **** 
  36:../include/scheduler.h **** volatile uint8_t num_tasks, task_executing;
  37:../include/scheduler.h **** 
  38:../include/scheduler.h **** void scheduler_init(void);
  39:../include/scheduler.h **** void task_list_cleanup(void);
  40:../include/scheduler.h **** 
  41:../include/scheduler.h **** /* 
  42:../include/scheduler.h ****  * Adds a new task to the task queue
  43:../include/scheduler.h ****  * time is number of milliseconds from present until function is executed
  44:../include/scheduler.h ****  * function is a function pointer to execute
  45:../include/scheduler.h ****  * arg is the argument to supply to function
  46:../include/scheduler.h ****  * Example: schedule_task(1000, foo, (void*)55)
  47:../include/scheduler.h ****  * will call foo(55) in one second
  48:../include/scheduler.h ****  * Returns a pointer to the task that can be used to remove the task from the queue
  49:../include/scheduler.h ****  */
  50:../include/scheduler.h **** volatile Task_t* schedule_task(uint32_t time, flex_function function, void* arg);
  51:../include/scheduler.h **** // This function primarily calls the above, but always to run 10ms in the future, and then repeat w
  52:../include/scheduler.h **** volatile Task_t* schedule_periodic_task(uint32_t period, flex_function function, void* arg);
  53:../include/scheduler.h **** 
  54:../include/scheduler.h **** void remove_task(volatile Task_t*); // Removes a task from the queue
  55:../include/scheduler.h **** void print_task_queue(void);
  56:../include/scheduler.h **** 
  57:../include/scheduler.h **** //Returns '1' if the next task to run is scheduled for more than 255ms in the past. If this occurs,
  58:../include/scheduler.h **** inline uint8_t task_list_check(void){ 
  59:../include/scheduler.h **** 	if(task_executing)	return 0;
 630               		.loc 5 59 0
 631 0240 8091 0000 		lds r24,task_executing
 632 0244 8823      		tst r24
 633 0246 01F0      		breq .L32
 634               	.L13:
 635               	.LBE67:
 636               	.LBE66:
  62:../src/droplet_init.c **** 	}
 637               		.loc 1 62 0
 638 0248 81E0      		ldi r24,lo8(1)
 639 024a 90E0      		ldi r25,0
 640 024c 0E94 0000 		call delay_ms
 641               	.LVL59:
  63:../src/droplet_init.c **** 	return 0;
 642               		.loc 1 63 0
 643 0250 00C0      		rjmp .L14
 644               	.L30:
 645               	.LBB69:
 646               	.LBB64:
  81:../src/droplet_init.c **** 		user_facing_messages_ovf=0;
 647               		.loc 1 81 0
 648 0252 3092 0000 		sts num_waiting_msgs,r3
  82:../src/droplet_init.c **** 		printf_P(PSTR("Error: Messages overflow. Too many messages received. Try speeding up your loop if
 649               		.loc 1 82 0
 650 0256 1092 0000 		sts user_facing_messages_ovf,__zero_reg__
  83:../src/droplet_init.c **** 	}
 651               		.loc 1 83 0
 652 025a 9F92      		push r9
 653 025c 8F92      		push r8
 654 025e 0E94 0000 		call printf_P
 655               	.LVL60:
 656 0262 0F90      		pop __tmp_reg__
 657 0264 0F90      		pop __tmp_reg__
 658 0266 00C0      		rjmp .L26
 659               	.L32:
 660               	.LBE64:
 661               	.LBE69:
 662               	.LBB70:
 663               	.LBB68:
  60:../include/scheduler.h **** 	else				return (((int32_t)(get_time()-(task_list->scheduled_time)))>3000); 
 664               		.loc 5 60 0
 665 0268 0E94 0000 		call get_time
 666               	.LVL61:
 667 026c E091 0000 		lds r30,task_list
 668 0270 F091 0000 		lds r31,task_list+1
 669 0274 2081      		ld r18,Z
 670 0276 3181      		ldd r19,Z+1
 671 0278 4281      		ldd r20,Z+2
 672 027a 5381      		ldd r21,Z+3
 673               	.LBE68:
 674               	.LBE70:
  58:../src/droplet_init.c **** 			printf_P(PSTR("Error! We got ahead of the task list and now nothing will execute.\r\n"));
 675               		.loc 1 58 0
 676 027c DC01      		movw r26,r24
 677 027e CB01      		movw r24,r22
 678 0280 821B      		sub r24,r18
 679 0282 930B      		sbc r25,r19
 680 0284 A40B      		sbc r26,r20
 681 0286 B50B      		sbc r27,r21
 682 0288 893B      		cpi r24,-71
 683 028a 9B40      		sbci r25,11
 684 028c A105      		cpc r26,__zero_reg__
 685 028e B105      		cpc r27,__zero_reg__
 686 0290 04F0      		brlt .L13
  59:../src/droplet_init.c **** 			task_list_cleanup();
 687               		.loc 1 59 0
 688 0292 7F92      		push r7
 689 0294 6F92      		push r6
 690 0296 0E94 0000 		call printf_P
 691               	.LVL62:
  60:../src/droplet_init.c **** 		}
 692               		.loc 1 60 0
 693 029a 0E94 0000 		call task_list_cleanup
 694               	.LVL63:
 695 029e 0F90      		pop __tmp_reg__
 696 02a0 0F90      		pop __tmp_reg__
 697 02a2 00C0      		rjmp .L13
 698               		.cfi_endproc
 699               	.LFE66:
 701               		.section	.text.get_droplet_ord,"ax",@progbits
 702               	.global	get_droplet_ord
 704               	get_droplet_ord:
 705               	.LFB71:
 145:../src/droplet_init.c **** }
 146:../src/droplet_init.c **** 
 147:../src/droplet_init.c **** uint8_t get_droplet_ord(id_t id){
 706               		.loc 1 147 0
 707               		.cfi_startproc
 708               	.LVL64:
 709               	/* prologue: function */
 710               	/* frame size = 0 */
 711               	/* stack size = 0 */
 712               	.L__stack_usage = 0
 148:../src/droplet_init.c **** 	switch(id){
 713               		.loc 1 148 0
 714 0000 8F3A      		cpi r24,-81
 715 0002 23E7      		ldi r18,115
 716 0004 9207      		cpc r25,r18
 717 0006 01F4      		brne .+2
 718 0008 00C0      		rjmp .L35
 719 000a 00F0      		brlo .L214
 720 000c 8B31      		cpi r24,27
 721 000e 24EB      		ldi r18,-76
 722 0010 9207      		cpc r25,r18
 723 0012 01F4      		brne .+2
 724 0014 00C0      		rjmp .L112
 725 0016 00F0      		brlo .+2
 726 0018 00C0      		rjmp .L113
 727 001a 8336      		cpi r24,99
 728 001c 24E9      		ldi r18,-108
 729 001e 9207      		cpc r25,r18
 730 0020 01F4      		brne .+2
 731 0022 00C0      		rjmp .L114
 732 0024 00F4      		brsh .+2
 733 0026 00C0      		rjmp .L215
 734 0028 8035      		cpi r24,80
 735 002a 22EA      		ldi r18,-94
 736 002c 9207      		cpc r25,r18
 737 002e 01F4      		brne .+2
 738 0030 00C0      		rjmp .L133
 739 0032 00F4      		brsh .+2
 740 0034 00C0      		rjmp .L216
 741 0036 8A36      		cpi r24,106
 742 0038 2FEA      		ldi r18,-81
 743 003a 9207      		cpc r25,r18
 744 003c 01F4      		brne .+2
 745 003e 00C0      		rjmp .L142
 746 0040 00F0      		brlo .+2
 747 0042 00C0      		rjmp .L143
 748 0044 853B      		cpi r24,-75
 749 0046 25EA      		ldi r18,-91
 750 0048 9207      		cpc r25,r18
 751 004a 01F4      		brne .+2
 752 004c 00C0      		rjmp .L144
 753 004e 8934      		cpi r24,73
 754 0050 26EA      		ldi r18,-90
 755 0052 9207      		cpc r25,r18
 756 0054 01F4      		brne .+2
 757 0056 00C0      		rjmp .L145
 758 0058 8F32      		cpi r24,47
 759 005a 954A      		sbci r25,-91
 760 005c 01F0      		breq .+2
 761 005e 00C0      		rjmp .L34
 149:../src/droplet_init.c **** 		case 0x0000: return 0;
 150:../src/droplet_init.c **** 		case 0x0029: return 1;
 151:../src/droplet_init.c **** 		case 0x0120: return 2;
 152:../src/droplet_init.c **** 		case 0x01A9: return 3;
 153:../src/droplet_init.c **** 		case 0x086B: return 4;
 154:../src/droplet_init.c **** 		case 0x0B68: return 5;
 155:../src/droplet_init.c **** 		case 0x1064: return 6;
 156:../src/droplet_init.c **** 		case 0x11D3: return 7;
 157:../src/droplet_init.c **** 		case 0x1266: return 8;
 158:../src/droplet_init.c **** 		case 0x12AD: return 9;
 159:../src/droplet_init.c **** 		case 0x1361: return 10;
 160:../src/droplet_init.c **** 		case 0x14AA: return 11;
 161:../src/droplet_init.c **** 		case 0x1562: return 12;
 162:../src/droplet_init.c **** 		case 0x1767: return 13;
 163:../src/droplet_init.c **** 		case 0x18A2: return 14;
 164:../src/droplet_init.c **** 		case 0x1927: return 15;
 165:../src/droplet_init.c **** 		case 0x2668: return 16;
 166:../src/droplet_init.c **** 		case 0x2826: return 17;
 167:../src/droplet_init.c **** 		case 0x2C92: return 18;
 168:../src/droplet_init.c **** 		case 0x3062: return 19;
 169:../src/droplet_init.c **** 		case 0x32A7: return 20;
 170:../src/droplet_init.c **** 		case 0x3493: return 21;
 171:../src/droplet_init.c **** 		case 0x382E: return 22;
 172:../src/droplet_init.c **** 		case 0x392B: return 23;
 173:../src/droplet_init.c **** 		case 0x392C: return 24;
 174:../src/droplet_init.c **** 		case 0x3B61: return 25;
 175:../src/droplet_init.c **** 		case 0x3D6C: return 26;
 176:../src/droplet_init.c **** 		case 0x3F6D: return 27;
 177:../src/droplet_init.c **** 		case 0x3F9D: return 28;
 178:../src/droplet_init.c **** 		case 0x4327: return 29;
 179:../src/droplet_init.c **** 		case 0x46A1: return 30;
 180:../src/droplet_init.c **** 		case 0x4E2E: return 31;
 181:../src/droplet_init.c **** 		case 0x4ED3: return 32;
 182:../src/droplet_init.c **** 		case 0x5161: return 33;
 183:../src/droplet_init.c **** 		case 0x5264: return 34;
 184:../src/droplet_init.c **** 		case 0x5A2F: return 35;
 185:../src/droplet_init.c **** 		case 0x5B2F: return 36;
 186:../src/droplet_init.c **** 		case 0x5C68: return 37;
 187:../src/droplet_init.c **** 		case 0x5D61: return 38;
 188:../src/droplet_init.c **** 		case 0x5E60: return 39;
 189:../src/droplet_init.c **** 		case 0x5F2D: return 40;
 190:../src/droplet_init.c **** 		case 0x5FEC: return 41;
 191:../src/droplet_init.c **** 		case 0x6597: return 42;
 192:../src/droplet_init.c **** 		case 0x6B6F: return 43;
 193:../src/droplet_init.c **** 		case 0x6C66: return 44;
 194:../src/droplet_init.c **** 		case 0x6C6F: return 45;
 195:../src/droplet_init.c **** 		case 0x6E67: return 46;
 196:../src/droplet_init.c **** 		case 0x7022: return 47;
 197:../src/droplet_init.c **** 		case 0x7066: return 48;
 198:../src/droplet_init.c **** 		case 0x73AF: return 49;
 199:../src/droplet_init.c **** 		case 0x75A1: return 50;
 200:../src/droplet_init.c **** 		case 0x7D13: return 51;
 201:../src/droplet_init.c **** 		case 0x7EDF: return 52;
 202:../src/droplet_init.c **** 		case 0x8521: return 53;
 203:../src/droplet_init.c **** 		case 0x8625: return 54;
 204:../src/droplet_init.c **** 		case 0x896F: return 55;
 205:../src/droplet_init.c **** 		case 0x8F9C: return 56;
 206:../src/droplet_init.c **** 		case 0x9029: return 57;
 207:../src/droplet_init.c **** 		case 0x9261: return 58;
 208:../src/droplet_init.c **** 		case 0x92DA: return 59;
 209:../src/droplet_init.c **** 		case 0x9363: return 60;
 210:../src/droplet_init.c **** 		case 0x9420: return 61;
 211:../src/droplet_init.c **** 		case 0x9463: return 62;
 212:../src/droplet_init.c **** 		case 0x9495: return 63;
 213:../src/droplet_init.c **** 		case 0x9564: return 64;
 214:../src/droplet_init.c **** 		case 0x9669: return 65;
 215:../src/droplet_init.c **** 		case 0x97A0: return 66;
 216:../src/droplet_init.c **** 		case 0xA0D8: return 67;
 217:../src/droplet_init.c **** 		case 0xA165: return 68;
 218:../src/droplet_init.c **** 		case 0xA250: return 69;
 219:../src/droplet_init.c **** 		case 0xA52F: return 70;
 762               		.loc 1 219 0
 763 0060 86E4      		ldi r24,lo8(70)
 764               	.LVL65:
 765 0062 0895      		ret
 766               	.LVL66:
 767               	.L214:
 148:../src/droplet_init.c **** 	switch(id){
 768               		.loc 1 148 0
 769 0064 8B32      		cpi r24,43
 770 0066 29E3      		ldi r18,57
 771 0068 9207      		cpc r25,r18
 772 006a 01F4      		brne .+2
 773 006c 00C0      		rjmp .L37
 774 006e 00F4      		brsh .L38
 775 0070 8236      		cpi r24,98
 776 0072 25E1      		ldi r18,21
 777 0074 9207      		cpc r25,r18
 778 0076 01F4      		brne .+2
 779 0078 00C0      		rjmp .L39
 780 007a 00F4      		brsh .+2
 781 007c 00C0      		rjmp .L217
 782 007e 8632      		cpi r24,38
 783 0080 28E2      		ldi r18,40
 784 0082 9207      		cpc r25,r18
 785 0084 01F4      		brne .+2
 786 0086 00C0      		rjmp .L58
 787 0088 00F4      		brsh .+2
 788 008a 00C0      		rjmp .L218
 789 008c 873A      		cpi r24,-89
 790 008e 22E3      		ldi r18,50
 791 0090 9207      		cpc r25,r18
 792 0092 01F4      		brne .+2
 793 0094 00C0      		rjmp .L67
 794 0096 00F0      		brlo .+2
 795 0098 00C0      		rjmp .L68
 796 009a 8239      		cpi r24,-110
 797 009c 2CE2      		ldi r18,44
 798 009e 9207      		cpc r25,r18
 799 00a0 01F4      		brne .+2
 800 00a2 00C0      		rjmp .L69
 801 00a4 8236      		cpi r24,98
 802 00a6 20E3      		ldi r18,48
 803 00a8 9207      		cpc r25,r18
 804 00aa 01F4      		brne .+2
 805 00ac 00C0      		rjmp .L70
 806 00ae 8E34      		cpi r24,78
 807 00b0 9B42      		sbci r25,43
 808 00b2 01F0      		breq .+2
 809 00b4 00C0      		rjmp .L34
 220:../src/droplet_init.c **** 		case 0xAF6A: return 71;
 221:../src/droplet_init.c **** 		case 0xAFD8: return 72;
 222:../src/droplet_init.c **** 		case 0xB122: return 73;
 223:../src/droplet_init.c **** 		case 0xB36F: return 74;
 224:../src/droplet_init.c **** 		case 0xB41B: return 75;
 225:../src/droplet_init.c **** 		case 0xB561: return 76;
 226:../src/droplet_init.c **** 		case 0xBC63: return 77;
 227:../src/droplet_init.c **** 		case 0xBC6E: return 78;
 228:../src/droplet_init.c **** 		case 0xBCB5: return 79;
 229:../src/droplet_init.c **** 		case 0xBD2D: return 80;
 230:../src/droplet_init.c **** 		case 0xC051: return 81;
 231:../src/droplet_init.c **** 		case 0xC32D: return 82;
 232:../src/droplet_init.c **** 		case 0xCB64: return 83;
 233:../src/droplet_init.c **** 		case 0xCBAB: return 84;
 234:../src/droplet_init.c **** 		case 0xCCD1: return 85;
 235:../src/droplet_init.c **** 		case 0xCD6B: return 86;
 236:../src/droplet_init.c **** 		case 0xCFA1: return 87;
 237:../src/droplet_init.c **** 		case 0xD0AE: return 88;
 238:../src/droplet_init.c **** 		case 0xD2D7: return 89;
 239:../src/droplet_init.c **** 		case 0xD766: return 90;
 240:../src/droplet_init.c **** 		case 0xD76C: return 91;
 241:../src/droplet_init.c **** 		case 0xD86C: return 92;
 242:../src/droplet_init.c **** 		case 0xD913: return 93;
 243:../src/droplet_init.c **** 		case 0xDC62: return 94;
 244:../src/droplet_init.c **** 		case 0xDC64: return 95;
 245:../src/droplet_init.c **** 		case 0xDC9E: return 96;
 246:../src/droplet_init.c **** 		case 0xDD21: return 97;
 247:../src/droplet_init.c **** 		case 0xDF64: return 98;
 248:../src/droplet_init.c **** 		case 0xFA6F: return 99;
 249:../src/droplet_init.c **** 		case 0xFCD0: return 100;  
 250:../src/droplet_init.c **** 		case 0x2B4E: return 101;	//This is the first AUDIO_DROPLET
 810               		.loc 1 250 0
 811 00b6 85E6      		ldi r24,lo8(101)
 812               	.LVL67:
 813 00b8 0895      		ret
 814               	.LVL68:
 815               	.L38:
 148:../src/droplet_init.c **** 		case 0x0000: return 0;
 816               		.loc 1 148 0
 817 00ba 8436      		cpi r24,100
 818 00bc 22E5      		ldi r18,82
 819 00be 9207      		cpc r25,r18
 820 00c0 01F4      		brne .+2
 821 00c2 00C0      		rjmp .L75
 822 00c4 00F4      		brsh .+2
 823 00c6 00C0      		rjmp .L219
 824 00c8 8739      		cpi r24,-105
 825 00ca 25E6      		ldi r18,101
 826 00cc 9207      		cpc r25,r18
 827 00ce 01F4      		brne .+2
 828 00d0 00C0      		rjmp .L94
 829 00d2 00F0      		brlo .+2
 830 00d4 00C0      		rjmp .L95
 831 00d6 8136      		cpi r24,97
 832 00d8 2DE5      		ldi r18,93
 833 00da 9207      		cpc r25,r18
 834 00dc 01F4      		brne .+2
 835 00de 00C0      		rjmp .L96
 836 00e0 00F0      		brlo .+2
 837 00e2 00C0      		rjmp .L97
 838 00e4 8F32      		cpi r24,47
 839 00e6 2BE5      		ldi r18,91
 840 00e8 9207      		cpc r25,r18
 841 00ea 01F4      		brne .+2
 842 00ec 00C0      		rjmp .L98
 843 00ee 8836      		cpi r24,104
 844 00f0 2CE5      		ldi r18,92
 845 00f2 9207      		cpc r25,r18
 846 00f4 01F4      		brne .+2
 847 00f6 00C0      		rjmp .L99
 848 00f8 8F32      		cpi r24,47
 849 00fa 9A45      		sbci r25,90
 850 00fc 01F0      		breq .+2
 851 00fe 00C0      		rjmp .L34
 184:../src/droplet_init.c **** 		case 0x5B2F: return 36;
 852               		.loc 1 184 0
 853 0100 83E2      		ldi r24,lo8(35)
 854               	.LVL69:
 855 0102 0895      		ret
 856               	.LVL70:
 857               	.L113:
 148:../src/droplet_init.c **** 		case 0x0000: return 0;
 858               		.loc 1 148 0
 859 0104 813A      		cpi r24,-95
 860 0106 2FEC      		ldi r18,-49
 861 0108 9207      		cpc r25,r18
 862 010a 01F4      		brne .+2
 863 010c 00C0      		rjmp .L150
 864 010e 00F4      		brsh .+2
 865 0110 00C0      		rjmp .L220
 866 0112 8436      		cpi r24,100
 867 0114 2CED      		ldi r18,-36
 868 0116 9207      		cpc r25,r18
 869 0118 01F4      		brne .+2
 870 011a 00C0      		rjmp .L169
 871 011c 00F0      		brlo .+2
 872 011e 00C0      		rjmp .L170
 873 0120 8C36      		cpi r24,108
 874 0122 27ED      		ldi r18,-41
 875 0124 9207      		cpc r25,r18
 876 0126 01F4      		brne .+2
 877 0128 00C0      		rjmp .L171
 878 012a 00F0      		brlo .+2
 879 012c 00C0      		rjmp .L172
 880 012e 873D      		cpi r24,-41
 881 0130 22ED      		ldi r18,-46
 882 0132 9207      		cpc r25,r18
 883 0134 01F4      		brne .+2
 884 0136 00C0      		rjmp .L173
 885 0138 8636      		cpi r24,102
 886 013a 27ED      		ldi r18,-41
 887 013c 9207      		cpc r25,r18
 888 013e 01F4      		brne .+2
 889 0140 00C0      		rjmp .L174
 890 0142 8E3A      		cpi r24,-82
 891 0144 904D      		sbci r25,-48
 892 0146 01F0      		breq .+2
 893 0148 00C0      		rjmp .L34
 237:../src/droplet_init.c **** 		case 0xD2D7: return 89;
 894               		.loc 1 237 0
 895 014a 88E5      		ldi r24,lo8(88)
 896               	.LVL71:
 897 014c 0895      		ret
 898               	.LVL72:
 899               	.L215:
 148:../src/droplet_init.c **** 		case 0x0000: return 0;
 900               		.loc 1 148 0
 901 014e 8F36      		cpi r24,111
 902 0150 29E8      		ldi r18,-119
 903 0152 9207      		cpc r25,r18
 904 0154 01F4      		brne .+2
 905 0156 00C0      		rjmp .L116
 906 0158 00F4      		brsh .+2
 907 015a 00C0      		rjmp .L221
 908 015c 8136      		cpi r24,97
 909 015e 22E9      		ldi r18,-110
 910 0160 9207      		cpc r25,r18
 911 0162 01F4      		brne .+2
 912 0164 00C0      		rjmp .L125
 913 0166 00F0      		brlo .+2
 914 0168 00C0      		rjmp .L126
 915 016a 8C39      		cpi r24,-100
 916 016c 2FE8      		ldi r18,-113
 917 016e 9207      		cpc r25,r18
 918 0170 01F4      		brne .+2
 919 0172 00C0      		rjmp .L127
 920 0174 8932      		cpi r24,41
 921 0176 20E9      		ldi r18,-112
 922 0178 9207      		cpc r25,r18
 923 017a 01F4      		brne .+2
 924 017c 00C0      		rjmp .L128
 925 017e 8634      		cpi r24,70
 926 0180 9B48      		sbci r25,-117
 927 0182 01F0      		breq .+2
 928 0184 00C0      		rjmp .L34
 251:../src/droplet_init.c **** 		case 0x7D78: return 102;
 252:../src/droplet_init.c **** 		case 0x8B46: return 103;
 929               		.loc 1 252 0
 930 0186 87E6      		ldi r24,lo8(103)
 931               	.LVL73:
 932 0188 0895      		ret
 933               	.LVL74:
 934               	.L217:
 148:../src/droplet_init.c **** 		case 0x0000: return 0;
 935               		.loc 1 148 0
 936 018a 8B30      		cpi r24,11
 937 018c 2AE0      		ldi r18,10
 938 018e 9207      		cpc r25,r18
 939 0190 01F4      		brne .+2
 940 0192 00C0      		rjmp .L41
 941 0194 00F4      		brsh .+2
 942 0196 00C0      		rjmp .L222
 943 0198 8636      		cpi r24,102
 944 019a 22E1      		ldi r18,18
 945 019c 9207      		cpc r25,r18
 946 019e 01F4      		brne .+2
 947 01a0 00C0      		rjmp .L50
 948 01a2 00F0      		brlo .+2
 949 01a4 00C0      		rjmp .L51
 950 01a6 8436      		cpi r24,100
 951 01a8 20E1      		ldi r18,16
 952 01aa 9207      		cpc r25,r18
 953 01ac 01F4      		brne .+2
 954 01ae 00C0      		rjmp .L52
 955 01b0 833D      		cpi r24,-45
 956 01b2 21E1      		ldi r18,17
 957 01b4 9207      		cpc r25,r18
 958 01b6 01F4      		brne .+2
 959 01b8 00C0      		rjmp .L53
 960 01ba 8836      		cpi r24,104
 961 01bc 9B40      		sbci r25,11
 962 01be 01F0      		breq .+2
 963 01c0 00C0      		rjmp .L34
 154:../src/droplet_init.c **** 		case 0x1064: return 6;
 964               		.loc 1 154 0
 965 01c2 85E0      		ldi r24,lo8(5)
 966               	.LVL75:
 967 01c4 0895      		ret
 968               	.LVL76:
 969               	.L219:
 148:../src/droplet_init.c **** 		case 0x0000: return 0;
 970               		.loc 1 148 0
 971 01c6 8737      		cpi r24,119
 972 01c8 21E4      		ldi r18,65
 973 01ca 9207      		cpc r25,r18
 974 01cc 01F4      		brne .+2
 975 01ce 00C0      		rjmp .L77
 976 01d0 00F4      		brsh .+2
 977 01d2 00C0      		rjmp .L223
 978 01d4 803B      		cpi r24,-80
 979 01d6 2DE4      		ldi r18,77
 980 01d8 9207      		cpc r25,r18
 981 01da 01F4      		brne .+2
 982 01dc 00C0      		rjmp .L86
 983 01de 00F0      		brlo .+2
 984 01e0 00C0      		rjmp .L87
 985 01e2 8A3B      		cpi r24,-70
 986 01e4 23E4      		ldi r18,67
 987 01e6 9207      		cpc r25,r18
 988 01e8 01F4      		brne .+2
 989 01ea 00C0      		rjmp .L88
 990 01ec 813A      		cpi r24,-95
 991 01ee 26E4      		ldi r18,70
 992 01f0 9207      		cpc r25,r18
 993 01f2 01F4      		brne .+2
 994 01f4 00C0      		rjmp .L89
 995 01f6 8732      		cpi r24,39
 996 01f8 9344      		sbci r25,67
 997 01fa 01F0      		breq .+2
 998 01fc 00C0      		rjmp .L34
 178:../src/droplet_init.c **** 		case 0x46A1: return 30;
 999               		.loc 1 178 0
 1000 01fe 8DE1      		ldi r24,lo8(29)
 1001               	.LVL77:
 1002 0200 0895      		ret
 1003               	.LVL78:
 1004               	.L220:
 148:../src/droplet_init.c **** 		case 0x0000: return 0;
 1005               		.loc 1 148 0
 1006 0202 8135      		cpi r24,81
 1007 0204 20EC      		ldi r18,-64
 1008 0206 9207      		cpc r25,r18
 1009 0208 01F4      		brne .+2
 1010 020a 00C0      		rjmp .L152
 1011 020c 00F4      		brsh .+2
 1012 020e 00C0      		rjmp .L224
 1013 0210 8436      		cpi r24,100
 1014 0212 2BEC      		ldi r18,-53
 1015 0214 9207      		cpc r25,r18
 1016 0216 01F4      		brne .+2
 1017 0218 00C0      		rjmp .L161
 1018 021a 00F0      		brlo .+2
 1019 021c 00C0      		rjmp .L162
 1020 021e 8D32      		cpi r24,45
 1021 0220 23EC      		ldi r18,-61
 1022 0222 9207      		cpc r25,r18
 1023 0224 01F4      		brne .+2
 1024 0226 00C0      		rjmp .L163
 1025 0228 8630      		cpi r24,6
 1026 022a 28EC      		ldi r18,-56
 1027 022c 9207      		cpc r25,r18
 1028 022e 01F4      		brne .+2
 1029 0230 00C0      		rjmp .L164
 1030 0232 8B34      		cpi r24,75
 1031 0234 924C      		sbci r25,-62
 1032 0236 01F0      		breq .+2
 1033 0238 00C0      		rjmp .L34
 253:../src/droplet_init.c **** 		case 0xC806: return 104;
 254:../src/droplet_init.c **** 		case 0x4177: return 105;
 255:../src/droplet_init.c **** 		case 0x0A0B: return 106;
 256:../src/droplet_init.c **** 		case 0x3B49: return 107;
 257:../src/droplet_init.c **** 		case 0x028C: return 108;
 258:../src/droplet_init.c **** 		case 0x1F08: return 109;
 259:../src/droplet_init.c **** 		case 0xEEB0: return 110;
 260:../src/droplet_init.c **** 		case 0xA649: return 111;
 261:../src/droplet_init.c **** 		case 0xA5B5: return 112;
 262:../src/droplet_init.c **** 		case 0xF60A: return 113;
 263:../src/droplet_init.c **** 		case 0xB944: return 114;
 264:../src/droplet_init.c **** 		case 0x3405: return 115;
 265:../src/droplet_init.c **** 		case 0x43BA: return 116;
 266:../src/droplet_init.c **** 		case 0x6648: return 117;
 267:../src/droplet_init.c **** 		case 0x1B4B: return 118;
 268:../src/droplet_init.c **** 		case 0xC24B: return 119;
 1034               		.loc 1 268 0
 1035 023a 87E7      		ldi r24,lo8(119)
 1036               	.LVL79:
 1037 023c 0895      		ret
 1038               	.LVL80:
 1039               	.L95:
 148:../src/droplet_init.c **** 		case 0x0000: return 0;
 1040               		.loc 1 148 0
 1041 023e 8F36      		cpi r24,111
 1042 0240 2CE6      		ldi r18,108
 1043 0242 9207      		cpc r25,r18
 1044 0244 01F0      		breq .L104
 1045 0246 00F0      		brlo .+2
 1046 0248 00C0      		rjmp .L105
 1047 024a 8F36      		cpi r24,111
 1048 024c 2BE6      		ldi r18,107
 1049 024e 9207      		cpc r25,r18
 1050 0250 01F4      		brne .+2
 1051 0252 00C0      		rjmp .L106
 1052 0254 8636      		cpi r24,102
 1053 0256 2CE6      		ldi r18,108
 1054 0258 9207      		cpc r25,r18
 1055 025a 01F4      		brne .+2
 1056 025c 00C0      		rjmp .L107
 1057 025e 8834      		cpi r24,72
 1058 0260 9646      		sbci r25,102
 1059 0262 01F0      		breq .+2
 1060 0264 00C0      		rjmp .L34
 266:../src/droplet_init.c **** 		case 0x1B4B: return 118;
 1061               		.loc 1 266 0
 1062 0266 85E7      		ldi r24,lo8(117)
 1063               	.LVL81:
 1064 0268 0895      		ret
 1065               	.LVL82:
 1066               	.L170:
 148:../src/droplet_init.c **** 		case 0x0000: return 0;
 1067               		.loc 1 148 0
 1068 026a 803B      		cpi r24,-80
 1069 026c 2EEE      		ldi r18,-18
 1070 026e 9207      		cpc r25,r18
 1071 0270 01F0      		breq .L179
 1072 0272 00F0      		brlo .+2
 1073 0274 00C0      		rjmp .L180
 1074 0276 8132      		cpi r24,33
 1075 0278 2DED      		ldi r18,-35
 1076 027a 9207      		cpc r25,r18
 1077 027c 01F4      		brne .+2
 1078 027e 00C0      		rjmp .L181
 1079 0280 8436      		cpi r24,100
 1080 0282 2FED      		ldi r18,-33
 1081 0284 9207      		cpc r25,r18
 1082 0286 01F4      		brne .+2
 1083 0288 00C0      		rjmp .L182
 1084 028a 8E39      		cpi r24,-98
 1085 028c 9C4D      		sbci r25,-36
 1086 028e 01F0      		breq .+2
 1087 0290 00C0      		rjmp .L34
 245:../src/droplet_init.c **** 		case 0xDD21: return 97;
 1088               		.loc 1 245 0
 1089 0292 80E6      		ldi r24,lo8(96)
 1090               	.LVL83:
 1091 0294 0895      		ret
 1092               	.LVL84:
 1093               	.L179:
 259:../src/droplet_init.c **** 		case 0xA649: return 111;
 1094               		.loc 1 259 0
 1095 0296 8EE6      		ldi r24,lo8(110)
 1096               	.LVL85:
 1097 0298 0895      		ret
 1098               	.LVL86:
 1099               	.L86:
 269:../src/droplet_init.c **** 		case 0x4DB0: return 120;
 1100               		.loc 1 269 0
 1101 029a 88E7      		ldi r24,lo8(120)
 1102               	.LVL87:
 1103 029c 0895      		ret
 1104               	.LVL88:
 1105               	.L96:
 187:../src/droplet_init.c **** 		case 0x5E60: return 39;
 1106               		.loc 1 187 0
 1107 029e 86E2      		ldi r24,lo8(38)
 1108               	.LVL89:
 1109 02a0 0895      		ret
 1110               	.LVL90:
 1111               	.L67:
 169:../src/droplet_init.c **** 		case 0x3493: return 21;
 1112               		.loc 1 169 0
 1113 02a2 84E1      		ldi r24,lo8(20)
 1114               	.LVL91:
 1115 02a4 0895      		ret
 1116               	.LVL92:
 1117               	.L142:
 220:../src/droplet_init.c **** 		case 0xAFD8: return 72;
 1118               		.loc 1 220 0
 1119 02a6 87E4      		ldi r24,lo8(71)
 1120               	.LVL93:
 1121 02a8 0895      		ret
 1122               	.LVL94:
 1123               	.L161:
 232:../src/droplet_init.c **** 		case 0xCBAB: return 84;
 1124               		.loc 1 232 0
 1125 02aa 83E5      		ldi r24,lo8(83)
 1126               	.LVL95:
 1127 02ac 0895      		ret
 1128               	.LVL96:
 1129               	.L125:
 207:../src/droplet_init.c **** 		case 0x92DA: return 59;
 1130               		.loc 1 207 0
 1131 02ae 8AE3      		ldi r24,lo8(58)
 1132               	.LVL97:
 1133 02b0 0895      		ret
 1134               	.LVL98:
 1135               	.L50:
 157:../src/droplet_init.c **** 		case 0x12AD: return 9;
 1136               		.loc 1 157 0
 1137 02b2 88E0      		ldi r24,lo8(8)
 1138               	.LVL99:
 1139 02b4 0895      		ret
 1140               	.LVL100:
 1141               	.L104:
 194:../src/droplet_init.c **** 		case 0x6E67: return 46;
 1142               		.loc 1 194 0
 1143 02b6 8DE2      		ldi r24,lo8(45)
 1144               	.LVL101:
 1145 02b8 0895      		ret
 1146               	.LVL102:
 1147               	.L171:
 240:../src/droplet_init.c **** 		case 0xD86C: return 92;
 1148               		.loc 1 240 0
 1149 02ba 8BE5      		ldi r24,lo8(91)
 1150               	.LVL103:
 1151 02bc 0895      		ret
 1152               	.LVL104:
 1153               	.L221:
 148:../src/droplet_init.c **** 		case 0x0000: return 0;
 1154               		.loc 1 148 0
 1155 02be 8837      		cpi r24,120
 1156 02c0 2DE7      		ldi r18,125
 1157 02c2 9207      		cpc r25,r18
 1158 02c4 01F4      		brne .+2
 1159 02c6 00C0      		rjmp .L118
 1160 02c8 00F4      		brsh .+2
 1161 02ca 00C0      		rjmp .L225
 1162 02cc 8132      		cpi r24,33
 1163 02ce 25E8      		ldi r18,-123
 1164 02d0 9207      		cpc r25,r18
 1165 02d2 01F4      		brne .+2
 1166 02d4 00C0      		rjmp .L122
 1167 02d6 8532      		cpi r24,37
 1168 02d8 26E8      		ldi r18,-122
 1169 02da 9207      		cpc r25,r18
 1170 02dc 01F4      		brne .+2
 1171 02de 00C0      		rjmp .L123
 1172 02e0 8F3D      		cpi r24,-33
 1173 02e2 9E47      		sbci r25,126
 1174 02e4 01F0      		breq .+2
 1175 02e6 00C0      		rjmp .L34
 201:../src/droplet_init.c **** 		case 0x8521: return 53;
 1176               		.loc 1 201 0
 1177 02e8 84E3      		ldi r24,lo8(52)
 1178               	.LVL105:
 1179 02ea 0895      		ret
 1180               	.LVL106:
 1181               	.L222:
 148:../src/droplet_init.c **** 		case 0x0000: return 0;
 1182               		.loc 1 148 0
 1183 02ec 8032      		cpi r24,32
 1184 02ee 21E0      		ldi r18,1
 1185 02f0 9207      		cpc r25,r18
 1186 02f2 01F4      		brne .+2
 1187 02f4 00C0      		rjmp .L43
 1188 02f6 00F4      		brsh .+2
 1189 02f8 00C0      		rjmp .L226
 1190 02fa 8C38      		cpi r24,-116
 1191 02fc 22E0      		ldi r18,2
 1192 02fe 9207      		cpc r25,r18
 1193 0300 01F4      		brne .+2
 1194 0302 00C0      		rjmp .L47
 1195 0304 8B36      		cpi r24,107
 1196 0306 28E0      		ldi r18,8
 1197 0308 9207      		cpc r25,r18
 1198 030a 01F4      		brne .+2
 1199 030c 00C0      		rjmp .L48
 1200 030e 893A      		cpi r24,-87
 1201 0310 9140      		sbci r25,1
 1202 0312 01F0      		breq .+2
 1203 0314 00C0      		rjmp .L34
 152:../src/droplet_init.c **** 		case 0x086B: return 4;
 1204               		.loc 1 152 0
 1205 0316 83E0      		ldi r24,lo8(3)
 1206               	.LVL107:
 1207 0318 0895      		ret
 1208               	.LVL108:
 1209               	.L216:
 148:../src/droplet_init.c **** 		case 0x0000: return 0;
 1210               		.loc 1 148 0
 1211 031a 8936      		cpi r24,105
 1212 031c 26E9      		ldi r18,-106
 1213 031e 9207      		cpc r25,r18
 1214 0320 01F4      		brne .+2
 1215 0322 00C0      		rjmp .L135
 1216 0324 00F4      		brsh .+2
 1217 0326 00C0      		rjmp .L227
 1218 0328 883D      		cpi r24,-40
 1219 032a 20EA      		ldi r18,-96
 1220 032c 9207      		cpc r25,r18
 1221 032e 01F4      		brne .+2
 1222 0330 00C0      		rjmp .L139
 1223 0332 8536      		cpi r24,101
 1224 0334 21EA      		ldi r18,-95
 1225 0336 9207      		cpc r25,r18
 1226 0338 01F4      		brne .+2
 1227 033a 00C0      		rjmp .L140
 1228 033c 803A      		cpi r24,-96
 1229 033e 9749      		sbci r25,-105
 1230 0340 01F0      		breq .+2
 1231 0342 00C0      		rjmp .L34
 215:../src/droplet_init.c **** 		case 0xA0D8: return 67;
 1232               		.loc 1 215 0
 1233 0344 82E4      		ldi r24,lo8(66)
 1234               	.LVL109:
 1235 0346 0895      		ret
 1236               	.LVL110:
 1237               	.L224:
 148:../src/droplet_init.c **** 		case 0x0000: return 0;
 1238               		.loc 1 148 0
 1239 0348 8336      		cpi r24,99
 1240 034a 2CEB      		ldi r18,-68
 1241 034c 9207      		cpc r25,r18
 1242 034e 01F4      		brne .+2
 1243 0350 00C0      		rjmp .L154
 1244 0352 00F4      		brsh .+2
 1245 0354 00C0      		rjmp .L228
 1246 0356 853B      		cpi r24,-75
 1247 0358 2CEB      		ldi r18,-68
 1248 035a 9207      		cpc r25,r18
 1249 035c 01F4      		brne .+2
 1250 035e 00C0      		rjmp .L158
 1251 0360 8D32      		cpi r24,45
 1252 0362 2DEB      		ldi r18,-67
 1253 0364 9207      		cpc r25,r18
 1254 0366 01F4      		brne .+2
 1255 0368 00C0      		rjmp .L159
 1256 036a 8E36      		cpi r24,110
 1257 036c 9C4B      		sbci r25,-68
 1258 036e 01F0      		breq .+2
 1259 0370 00C0      		rjmp .L34
 227:../src/droplet_init.c **** 		case 0xBCB5: return 79;
 1260               		.loc 1 227 0
 1261 0372 8EE4      		ldi r24,lo8(78)
 1262               	.LVL111:
 1263 0374 0895      		ret
 1264               	.LVL112:
 1265               	.L218:
 148:../src/droplet_init.c **** 		case 0x0000: return 0;
 1266               		.loc 1 148 0
 1267 0376 8732      		cpi r24,39
 1268 0378 29E1      		ldi r18,25
 1269 037a 9207      		cpc r25,r18
 1270 037c 01F4      		brne .+2
 1271 037e 00C0      		rjmp .L60
 1272 0380 00F4      		brsh .+2
 1273 0382 00C0      		rjmp .L229
 1274 0384 8830      		cpi r24,8
 1275 0386 2FE1      		ldi r18,31
 1276 0388 9207      		cpc r25,r18
 1277 038a 01F4      		brne .+2
 1278 038c 00C0      		rjmp .L64
 1279 038e 8836      		cpi r24,104
 1280 0390 26E2      		ldi r18,38
 1281 0392 9207      		cpc r25,r18
 1282 0394 01F4      		brne .+2
 1283 0396 00C0      		rjmp .L65
 1284 0398 8B34      		cpi r24,75
 1285 039a 9B41      		sbci r25,27
 1286 039c 01F0      		breq .+2
 1287 039e 00C0      		rjmp .L34
 267:../src/droplet_init.c **** 		case 0xC24B: return 119;
 1288               		.loc 1 267 0
 1289 03a0 86E7      		ldi r24,lo8(118)
 1290               	.LVL113:
 1291 03a2 0895      		ret
 1292               	.LVL114:
 1293               	.L223:
 148:../src/droplet_init.c **** 		case 0x0000: return 0;
 1294               		.loc 1 148 0
 1295 03a4 8136      		cpi r24,97
 1296 03a6 2BE3      		ldi r18,59
 1297 03a8 9207      		cpc r25,r18
 1298 03aa 01F4      		brne .+2
 1299 03ac 00C0      		rjmp .L79
 1300 03ae 00F4      		brsh .+2
 1301 03b0 00C0      		rjmp .L230
 1302 03b2 8D36      		cpi r24,109
 1303 03b4 2FE3      		ldi r18,63
 1304 03b6 9207      		cpc r25,r18
 1305 03b8 01F4      		brne .+2
 1306 03ba 00C0      		rjmp .L83
 1307 03bc 8D39      		cpi r24,-99
 1308 03be 2FE3      		ldi r18,63
 1309 03c0 9207      		cpc r25,r18
 1310 03c2 01F4      		brne .+2
 1311 03c4 00C0      		rjmp .L84
 1312 03c6 8C36      		cpi r24,108
 1313 03c8 9D43      		sbci r25,61
 1314 03ca 01F0      		breq .+2
 1315 03cc 00C0      		rjmp .L34
 175:../src/droplet_init.c **** 		case 0x3F6D: return 27;
 1316               		.loc 1 175 0
 1317 03ce 8AE1      		ldi r24,lo8(26)
 1318               	.LVL115:
 1319 03d0 0895      		ret
 1320               	.LVL116:
 1321               	.L87:
 148:../src/droplet_init.c **** 		case 0x0000: return 0;
 1322               		.loc 1 148 0
 1323 03d2 833D      		cpi r24,-45
 1324 03d4 2EE4      		ldi r18,78
 1325 03d6 9207      		cpc r25,r18
 1326 03d8 01F4      		brne .+2
 1327 03da 00C0      		rjmp .L91
 1328 03dc 8136      		cpi r24,97
 1329 03de 21E5      		ldi r18,81
 1330 03e0 9207      		cpc r25,r18
 1331 03e2 01F4      		brne .+2
 1332 03e4 00C0      		rjmp .L92
 1333 03e6 8E32      		cpi r24,46
 1334 03e8 9E44      		sbci r25,78
 1335 03ea 01F0      		breq .+2
 1336 03ec 00C0      		rjmp .L34
 180:../src/droplet_init.c **** 		case 0x4ED3: return 32;
 1337               		.loc 1 180 0
 1338 03ee 8FE1      		ldi r24,lo8(31)
 1339               	.LVL117:
 1340 03f0 0895      		ret
 1341               	.LVL118:
 1342               	.L143:
 148:../src/droplet_init.c **** 		case 0x0000: return 0;
 1343               		.loc 1 148 0
 1344 03f2 8232      		cpi r24,34
 1345 03f4 21EB      		ldi r18,-79
 1346 03f6 9207      		cpc r25,r18
 1347 03f8 01F4      		brne .+2
 1348 03fa 00C0      		rjmp .L147
 1349 03fc 8F36      		cpi r24,111
 1350 03fe 23EB      		ldi r18,-77
 1351 0400 9207      		cpc r25,r18
 1352 0402 01F4      		brne .+2
 1353 0404 00C0      		rjmp .L148
 1354 0406 883D      		cpi r24,-40
 1355 0408 9F4A      		sbci r25,-81
 1356 040a 01F0      		breq .+2
 1357 040c 00C0      		rjmp .L34
 221:../src/droplet_init.c **** 		case 0xB122: return 73;
 1358               		.loc 1 221 0
 1359 040e 88E4      		ldi r24,lo8(72)
 1360               	.LVL119:
 1361 0410 0895      		ret
 1362               	.LVL120:
 1363               	.L180:
 148:../src/droplet_init.c **** 		case 0x0000: return 0;
 1364               		.loc 1 148 0
 1365 0412 8F36      		cpi r24,111
 1366 0414 2AEF      		ldi r18,-6
 1367 0416 9207      		cpc r25,r18
 1368 0418 01F4      		brne .+2
 1369 041a 00C0      		rjmp .L184
 1370 041c 803D      		cpi r24,-48
 1371 041e 2CEF      		ldi r18,-4
 1372 0420 9207      		cpc r25,r18
 1373 0422 01F4      		brne .+2
 1374 0424 00C0      		rjmp .L185
 1375 0426 8A30      		cpi r24,10
 1376 0428 964F      		sbci r25,-10
 1377 042a 01F0      		breq .+2
 1378 042c 00C0      		rjmp .L34
 262:../src/droplet_init.c **** 		case 0xB944: return 114;
 1379               		.loc 1 262 0
 1380 042e 81E7      		ldi r24,lo8(113)
 1381               	.LVL121:
 1382 0430 0895      		ret
 1383               	.LVL122:
 1384               	.L105:
 148:../src/droplet_init.c **** 		case 0x0000: return 0;
 1385               		.loc 1 148 0
 1386 0432 8232      		cpi r24,34
 1387 0434 20E7      		ldi r18,112
 1388 0436 9207      		cpc r25,r18
 1389 0438 01F4      		brne .+2
 1390 043a 00C0      		rjmp .L109
 1391 043c 8636      		cpi r24,102
 1392 043e 20E7      		ldi r18,112
 1393 0440 9207      		cpc r25,r18
 1394 0442 01F4      		brne .+2
 1395 0444 00C0      		rjmp .L110
 1396 0446 8736      		cpi r24,103
 1397 0448 9E46      		sbci r25,110
 1398 044a 01F0      		breq .+2
 1399 044c 00C0      		rjmp .L34
 195:../src/droplet_init.c **** 		case 0x7022: return 47;
 1400               		.loc 1 195 0
 1401 044e 8EE2      		ldi r24,lo8(46)
 1402               	.LVL123:
 1403 0450 0895      		ret
 1404               	.LVL124:
 1405               	.L162:
 148:../src/droplet_init.c **** 		case 0x0000: return 0;
 1406               		.loc 1 148 0
 1407 0452 813D      		cpi r24,-47
 1408 0454 2CEC      		ldi r18,-52
 1409 0456 9207      		cpc r25,r18
 1410 0458 01F4      		brne .+2
 1411 045a 00C0      		rjmp .L166
 1412 045c 8B36      		cpi r24,107
 1413 045e 2DEC      		ldi r18,-51
 1414 0460 9207      		cpc r25,r18
 1415 0462 01F4      		brne .+2
 1416 0464 00C0      		rjmp .L167
 1417 0466 8B3A      		cpi r24,-85
 1418 0468 9B4C      		sbci r25,-53
 1419 046a 01F0      		breq .+2
 1420 046c 00C0      		rjmp .L34
 233:../src/droplet_init.c **** 		case 0xCCD1: return 85;
 1421               		.loc 1 233 0
 1422 046e 84E5      		ldi r24,lo8(84)
 1423               	.LVL125:
 1424 0470 0895      		ret
 1425               	.LVL126:
 1426               	.L68:
 148:../src/droplet_init.c **** 		case 0x0000: return 0;
 1427               		.loc 1 148 0
 1428 0472 8339      		cpi r24,-109
 1429 0474 24E3      		ldi r18,52
 1430 0476 9207      		cpc r25,r18
 1431 0478 01F4      		brne .+2
 1432 047a 00C0      		rjmp .L72
 1433 047c 8E32      		cpi r24,46
 1434 047e 28E3      		ldi r18,56
 1435 0480 9207      		cpc r25,r18
 1436 0482 01F4      		brne .+2
 1437 0484 00C0      		rjmp .L73
 1438 0486 8530      		cpi r24,5
 1439 0488 9443      		sbci r25,52
 1440 048a 01F0      		breq .+2
 1441 048c 00C0      		rjmp .L34
 264:../src/droplet_init.c **** 		case 0x43BA: return 116;
 1442               		.loc 1 264 0
 1443 048e 83E7      		ldi r24,lo8(115)
 1444               	.LVL127:
 1445 0490 0895      		ret
 1446               	.LVL128:
 1447               	.L126:
 148:../src/droplet_init.c **** 		case 0x0000: return 0;
 1448               		.loc 1 148 0
 1449 0492 8336      		cpi r24,99
 1450 0494 23E9      		ldi r18,-109
 1451 0496 9207      		cpc r25,r18
 1452 0498 01F4      		brne .+2
 1453 049a 00C0      		rjmp .L130
 1454 049c 8032      		cpi r24,32
 1455 049e 24E9      		ldi r18,-108
 1456 04a0 9207      		cpc r25,r18
 1457 04a2 01F4      		brne .+2
 1458 04a4 00C0      		rjmp .L131
 1459 04a6 8A3D      		cpi r24,-38
 1460 04a8 9249      		sbci r25,-110
 1461 04aa 01F0      		breq .+2
 1462 04ac 00C0      		rjmp .L34
 208:../src/droplet_init.c **** 		case 0x9363: return 60;
 1463               		.loc 1 208 0
 1464 04ae 8BE3      		ldi r24,lo8(59)
 1465               	.LVL129:
 1466 04b0 0895      		ret
 1467               	.LVL130:
 1468               	.L97:
 148:../src/droplet_init.c **** 		case 0x0000: return 0;
 1469               		.loc 1 148 0
 1470 04b2 8D32      		cpi r24,45
 1471 04b4 2FE5      		ldi r18,95
 1472 04b6 9207      		cpc r25,r18
 1473 04b8 01F4      		brne .+2
 1474 04ba 00C0      		rjmp .L101
 1475 04bc 8C3E      		cpi r24,-20
 1476 04be 2FE5      		ldi r18,95
 1477 04c0 9207      		cpc r25,r18
 1478 04c2 01F4      		brne .+2
 1479 04c4 00C0      		rjmp .L102
 1480 04c6 8036      		cpi r24,96
 1481 04c8 9E45      		sbci r25,94
 1482 04ca 01F0      		breq .+2
 1483 04cc 00C0      		rjmp .L34
 188:../src/droplet_init.c **** 		case 0x5F2D: return 40;
 1484               		.loc 1 188 0
 1485 04ce 87E2      		ldi r24,lo8(39)
 1486               	.LVL131:
 1487 04d0 0895      		ret
 1488               	.LVL132:
 1489               	.L172:
 148:../src/droplet_init.c **** 		case 0x0000: return 0;
 1490               		.loc 1 148 0
 1491 04d2 8331      		cpi r24,19
 1492 04d4 29ED      		ldi r18,-39
 1493 04d6 9207      		cpc r25,r18
 1494 04d8 01F4      		brne .+2
 1495 04da 00C0      		rjmp .L176
 1496 04dc 8236      		cpi r24,98
 1497 04de 2CED      		ldi r18,-36
 1498 04e0 9207      		cpc r25,r18
 1499 04e2 01F4      		brne .+2
 1500 04e4 00C0      		rjmp .L177
 1501 04e6 8C36      		cpi r24,108
 1502 04e8 984D      		sbci r25,-40
 1503 04ea 01F0      		breq .+2
 1504 04ec 00C0      		rjmp .L34
 241:../src/droplet_init.c **** 		case 0xD913: return 93;
 1505               		.loc 1 241 0
 1506 04ee 8CE5      		ldi r24,lo8(92)
 1507               	.LVL133:
 1508 04f0 0895      		ret
 1509               	.LVL134:
 1510               	.L51:
 148:../src/droplet_init.c **** 		case 0x0000: return 0;
 1511               		.loc 1 148 0
 1512 04f2 8136      		cpi r24,97
 1513 04f4 23E1      		ldi r18,19
 1514 04f6 9207      		cpc r25,r18
 1515 04f8 01F4      		brne .+2
 1516 04fa 00C0      		rjmp .L55
 1517 04fc 8A3A      		cpi r24,-86
 1518 04fe 24E1      		ldi r18,20
 1519 0500 9207      		cpc r25,r18
 1520 0502 01F4      		brne .+2
 1521 0504 00C0      		rjmp .L56
 1522 0506 8D3A      		cpi r24,-83
 1523 0508 9241      		sbci r25,18
 1524 050a 01F0      		breq .+2
 1525 050c 00C0      		rjmp .L34
 158:../src/droplet_init.c **** 		case 0x1361: return 10;
 1526               		.loc 1 158 0
 1527 050e 89E0      		ldi r24,lo8(9)
 1528               	.LVL135:
 1529 0510 0895      		ret
 1530               	.LVL136:
 1531               	.L225:
 148:../src/droplet_init.c **** 		case 0x0000: return 0;
 1532               		.loc 1 148 0
 1533 0512 813A      		cpi r24,-95
 1534 0514 25E7      		ldi r18,117
 1535 0516 9207      		cpc r25,r18
 1536 0518 01F4      		brne .+2
 1537 051a 00C0      		rjmp .L120
 1538 051c 8331      		cpi r24,19
 1539 051e 9D47      		sbci r25,125
 1540 0520 01F0      		breq .+2
 1541 0522 00C0      		rjmp .L34
 200:../src/droplet_init.c **** 		case 0x7EDF: return 52;
 1542               		.loc 1 200 0
 1543 0524 83E3      		ldi r24,lo8(51)
 1544               	.LVL137:
 1545 0526 0895      		ret
 1546               	.LVL138:
 1547               	.L228:
 148:../src/droplet_init.c **** 		case 0x0000: return 0;
 1548               		.loc 1 148 0
 1549 0528 8136      		cpi r24,97
 1550 052a 25EB      		ldi r18,-75
 1551 052c 9207      		cpc r25,r18
 1552 052e 01F4      		brne .+2
 1553 0530 00C0      		rjmp .L156
 1554 0532 8434      		cpi r24,68
 1555 0534 994B      		sbci r25,-71
 1556 0536 01F0      		breq .+2
 1557 0538 00C0      		rjmp .L34
 263:../src/droplet_init.c **** 		case 0x3405: return 115;
 1558               		.loc 1 263 0
 1559 053a 82E7      		ldi r24,lo8(114)
 1560               	.LVL139:
 1561 053c 0895      		ret
 1562               	.LVL140:
 1563               	.L226:
 148:../src/droplet_init.c **** 		case 0x0000: return 0;
 1564               		.loc 1 148 0
 1565 053e 0097      		sbiw r24,0
 1566 0540 01F4      		brne .+2
 1567 0542 00C0      		rjmp .L187
 1568 0544 8997      		sbiw r24,41
 1569 0546 01F0      		breq .+2
 1570 0548 00C0      		rjmp .L34
 150:../src/droplet_init.c **** 		case 0x0120: return 2;
 1571               		.loc 1 150 0
 1572 054a 81E0      		ldi r24,lo8(1)
 1573               	.LVL141:
 1574 054c 0895      		ret
 1575               	.LVL142:
 1576               	.L227:
 148:../src/droplet_init.c **** 		case 0x0000: return 0;
 1577               		.loc 1 148 0
 1578 054e 8539      		cpi r24,-107
 1579 0550 24E9      		ldi r18,-108
 1580 0552 9207      		cpc r25,r18
 1581 0554 01F4      		brne .+2
 1582 0556 00C0      		rjmp .L137
 1583 0558 8436      		cpi r24,100
 1584 055a 9549      		sbci r25,-107
 1585 055c 01F0      		breq .+2
 1586 055e 00C0      		rjmp .L34
 213:../src/droplet_init.c **** 		case 0x9669: return 65;
 1587               		.loc 1 213 0
 1588 0560 80E4      		ldi r24,lo8(64)
 1589               	.LVL143:
 1590 0562 0895      		ret
 1591               	.LVL144:
 1592               	.L229:
 148:../src/droplet_init.c **** 		case 0x0000: return 0;
 1593               		.loc 1 148 0
 1594 0564 8736      		cpi r24,103
 1595 0566 27E1      		ldi r18,23
 1596 0568 9207      		cpc r25,r18
 1597 056a 01F4      		brne .+2
 1598 056c 00C0      		rjmp .L62
 1599 056e 823A      		cpi r24,-94
 1600 0570 9841      		sbci r25,24
 1601 0572 01F0      		breq .+2
 1602 0574 00C0      		rjmp .L34
 163:../src/droplet_init.c **** 		case 0x1927: return 15;
 1603               		.loc 1 163 0
 1604 0576 8EE0      		ldi r24,lo8(14)
 1605               	.LVL145:
 1606 0578 0895      		ret
 1607               	.LVL146:
 1608               	.L230:
 148:../src/droplet_init.c **** 		case 0x0000: return 0;
 1609               		.loc 1 148 0
 1610 057a 8C32      		cpi r24,44
 1611 057c 29E3      		ldi r18,57
 1612 057e 9207      		cpc r25,r18
 1613 0580 01F0      		breq .L81
 1614 0582 8934      		cpi r24,73
 1615 0584 9B43      		sbci r25,59
 1616 0586 01F0      		breq .+2
 1617 0588 00C0      		rjmp .L34
 256:../src/droplet_init.c **** 		case 0x028C: return 108;
 1618               		.loc 1 256 0
 1619 058a 8BE6      		ldi r24,lo8(107)
 1620               	.LVL147:
 1621 058c 0895      		ret
 1622               	.LVL148:
 1623               	.L118:
 251:../src/droplet_init.c **** 		case 0x8B46: return 103;
 1624               		.loc 1 251 0
 1625 058e 86E6      		ldi r24,lo8(102)
 1626               	.LVL149:
 1627 0590 0895      		ret
 1628               	.LVL150:
 1629               	.L81:
 173:../src/droplet_init.c **** 		case 0x3B61: return 25;
 1630               		.loc 1 173 0
 1631 0592 88E1      		ldi r24,lo8(24)
 1632               	.LVL151:
 1633 0594 0895      		ret
 1634               	.LVL152:
 1635               	.L173:
 238:../src/droplet_init.c **** 		case 0xD766: return 90;
 1636               		.loc 1 238 0
 1637 0596 89E5      		ldi r24,lo8(89)
 1638               	.LVL153:
 1639 0598 0895      		ret
 1640               	.LVL154:
 1641               	.L52:
 155:../src/droplet_init.c **** 		case 0x11D3: return 7;
 1642               		.loc 1 155 0
 1643 059a 86E0      		ldi r24,lo8(6)
 1644               	.LVL155:
 1645 059c 0895      		ret
 1646               	.LVL156:
 1647               	.L163:
 231:../src/droplet_init.c **** 		case 0xCB64: return 83;
 1648               		.loc 1 231 0
 1649 059e 82E5      		ldi r24,lo8(82)
 1650               	.LVL157:
 1651 05a0 0895      		ret
 1652               	.LVL158:
 1653               	.L69:
 167:../src/droplet_init.c **** 		case 0x3062: return 19;
 1654               		.loc 1 167 0
 1655 05a2 82E1      		ldi r24,lo8(18)
 1656               	.LVL159:
 1657 05a4 0895      		ret
 1658               	.LVL160:
 1659               	.L127:
 205:../src/droplet_init.c **** 		case 0x9029: return 57;
 1660               		.loc 1 205 0
 1661 05a6 88E3      		ldi r24,lo8(56)
 1662               	.LVL161:
 1663 05a8 0895      		ret
 1664               	.LVL162:
 1665               	.L98:
 185:../src/droplet_init.c **** 		case 0x5C68: return 37;
 1666               		.loc 1 185 0
 1667 05aa 84E2      		ldi r24,lo8(36)
 1668               	.LVL163:
 1669 05ac 0895      		ret
 1670               	.LVL164:
 1671               	.L88:
 265:../src/droplet_init.c **** 		case 0x6648: return 117;
 1672               		.loc 1 265 0
 1673 05ae 84E7      		ldi r24,lo8(116)
 1674               	.LVL165:
 1675 05b0 0895      		ret
 1676               	.LVL166:
 1677               	.L144:
 261:../src/droplet_init.c **** 		case 0xF60A: return 113;
 1678               		.loc 1 261 0
 1679 05b2 80E7      		ldi r24,lo8(112)
 1680               	.LVL167:
 1681 05b4 0895      		ret
 1682               	.LVL168:
 1683               	.L181:
 246:../src/droplet_init.c **** 		case 0xDF64: return 98;
 1684               		.loc 1 246 0
 1685 05b6 81E6      		ldi r24,lo8(97)
 1686               	.LVL169:
 1687 05b8 0895      		ret
 1688               	.LVL170:
 1689               	.L106:
 192:../src/droplet_init.c **** 		case 0x6C66: return 44;
 1690               		.loc 1 192 0
 1691 05ba 8BE2      		ldi r24,lo8(43)
 1692               	.LVL171:
 1693 05bc 0895      		ret
 1694               	.LVL172:
 1695               	.L123:
 203:../src/droplet_init.c **** 		case 0x896F: return 55;
 1696               		.loc 1 203 0
 1697 05be 86E3      		ldi r24,lo8(54)
 1698               	.LVL173:
 1699 05c0 0895      		ret
 1700               	.LVL174:
 1701               	.L122:
 202:../src/droplet_init.c **** 		case 0x8625: return 54;
 1702               		.loc 1 202 0
 1703 05c2 85E3      		ldi r24,lo8(53)
 1704               	.LVL175:
 1705 05c4 0895      		ret
 1706               	.LVL176:
 1707               	.L56:
 160:../src/droplet_init.c **** 		case 0x1562: return 12;
 1708               		.loc 1 160 0
 1709 05c6 8BE0      		ldi r24,lo8(11)
 1710               	.LVL177:
 1711 05c8 0895      		ret
 1712               	.LVL178:
 1713               	.L55:
 159:../src/droplet_init.c **** 		case 0x14AA: return 11;
 1714               		.loc 1 159 0
 1715 05ca 8AE0      		ldi r24,lo8(10)
 1716               	.LVL179:
 1717 05cc 0895      		ret
 1718               	.LVL180:
 1719               	.L169:
 244:../src/droplet_init.c **** 		case 0xDC9E: return 96;
 1720               		.loc 1 244 0
 1721 05ce 8FE5      		ldi r24,lo8(95)
 1722               	.LVL181:
 1723 05d0 0895      		ret
 1724               	.LVL182:
 1725               	.L37:
 172:../src/droplet_init.c **** 		case 0x392C: return 24;
 1726               		.loc 1 172 0
 1727 05d2 87E1      		ldi r24,lo8(23)
 1728               	.LVL183:
 1729 05d4 0895      		ret
 1730               	.LVL184:
 1731               	.L39:
 161:../src/droplet_init.c **** 		case 0x1767: return 13;
 1732               		.loc 1 161 0
 1733 05d6 8CE0      		ldi r24,lo8(12)
 1734               	.LVL185:
 1735 05d8 0895      		ret
 1736               	.LVL186:
 1737               	.L112:
 224:../src/droplet_init.c **** 		case 0xB561: return 76;
 1738               		.loc 1 224 0
 1739 05da 8BE4      		ldi r24,lo8(75)
 1740               	.LVL187:
 1741 05dc 0895      		ret
 1742               	.LVL188:
 1743               	.L114:
 211:../src/droplet_init.c **** 		case 0x9495: return 63;
 1744               		.loc 1 211 0
 1745 05de 8EE3      		ldi r24,lo8(62)
 1746               	.LVL189:
 1747 05e0 0895      		ret
 1748               	.LVL190:
 1749               	.L150:
 236:../src/droplet_init.c **** 		case 0xD0AE: return 88;
 1750               		.loc 1 236 0
 1751 05e2 87E5      		ldi r24,lo8(87)
 1752               	.LVL191:
 1753 05e4 0895      		ret
 1754               	.LVL192:
 1755               	.L35:
 198:../src/droplet_init.c **** 		case 0x75A1: return 50;
 1756               		.loc 1 198 0
 1757 05e6 81E3      		ldi r24,lo8(49)
 1758               	.LVL193:
 1759 05e8 0895      		ret
 1760               	.LVL194:
 1761               	.L75:
 183:../src/droplet_init.c **** 		case 0x5A2F: return 35;
 1762               		.loc 1 183 0
 1763 05ea 82E2      		ldi r24,lo8(34)
 1764               	.LVL195:
 1765 05ec 0895      		ret
 1766               	.LVL196:
 1767               	.L89:
 179:../src/droplet_init.c **** 		case 0x4E2E: return 31;
 1768               		.loc 1 179 0
 1769 05ee 8EE1      		ldi r24,lo8(30)
 1770               	.LVL197:
 1771 05f0 0895      		ret
 1772               	.LVL198:
 1773               	.L145:
 260:../src/droplet_init.c **** 		case 0xA5B5: return 112;
 1774               		.loc 1 260 0
 1775 05f2 8FE6      		ldi r24,lo8(111)
 1776               	.LVL199:
 1777 05f4 0895      		ret
 1778               	.LVL200:
 1779               	.L92:
 182:../src/droplet_init.c **** 		case 0x5264: return 34;
 1780               		.loc 1 182 0
 1781 05f6 81E2      		ldi r24,lo8(33)
 1782               	.LVL201:
 1783 05f8 0895      		ret
 1784               	.LVL202:
 1785               	.L91:
 181:../src/droplet_init.c **** 		case 0x5161: return 33;
 1786               		.loc 1 181 0
 1787 05fa 80E2      		ldi r24,lo8(32)
 1788               	.LVL203:
 1789 05fc 0895      		ret
 1790               	.LVL204:
 1791               	.L116:
 204:../src/droplet_init.c **** 		case 0x8F9C: return 56;
 1792               		.loc 1 204 0
 1793 05fe 87E3      		ldi r24,lo8(55)
 1794               	.LVL205:
 1795 0600 0895      		ret
 1796               	.LVL206:
 1797               	.L70:
 168:../src/droplet_init.c **** 		case 0x32A7: return 20;
 1798               		.loc 1 168 0
 1799 0602 83E1      		ldi r24,lo8(19)
 1800               	.LVL207:
 1801 0604 0895      		ret
 1802               	.LVL208:
 1803               	.L167:
 235:../src/droplet_init.c **** 		case 0xCFA1: return 87;
 1804               		.loc 1 235 0
 1805 0606 86E5      		ldi r24,lo8(86)
 1806               	.LVL209:
 1807 0608 0895      		ret
 1808               	.LVL210:
 1809               	.L166:
 234:../src/droplet_init.c **** 		case 0xCD6B: return 86;
 1810               		.loc 1 234 0
 1811 060a 85E5      		ldi r24,lo8(85)
 1812               	.LVL211:
 1813 060c 0895      		ret
 1814               	.LVL212:
 1815               	.L77:
 254:../src/droplet_init.c **** 		case 0x0A0B: return 106;
 1816               		.loc 1 254 0
 1817 060e 89E6      		ldi r24,lo8(105)
 1818               	.LVL213:
 1819 0610 0895      		ret
 1820               	.LVL214:
 1821               	.L107:
 193:../src/droplet_init.c **** 		case 0x6C6F: return 45;
 1822               		.loc 1 193 0
 1823 0612 8CE2      		ldi r24,lo8(44)
 1824               	.LVL215:
 1825 0614 0895      		ret
 1826               	.LVL216:
 1827               	.L185:
 249:../src/droplet_init.c **** 		case 0x2B4E: return 101;	//This is the first AUDIO_DROPLET
 1828               		.loc 1 249 0
 1829 0616 84E6      		ldi r24,lo8(100)
 1830               	.LVL217:
 1831 0618 0895      		ret
 1832               	.LVL218:
 1833               	.L184:
 248:../src/droplet_init.c **** 		case 0xFCD0: return 100;  
 1834               		.loc 1 248 0
 1835 061a 83E6      		ldi r24,lo8(99)
 1836               	.LVL219:
 1837 061c 0895      		ret
 1838               	.LVL220:
 1839               	.L58:
 166:../src/droplet_init.c **** 		case 0x2C92: return 18;
 1840               		.loc 1 166 0
 1841 061e 81E1      		ldi r24,lo8(17)
 1842               	.LVL221:
 1843 0620 0895      		ret
 1844               	.LVL222:
 1845               	.L174:
 239:../src/droplet_init.c **** 		case 0xD76C: return 91;
 1846               		.loc 1 239 0
 1847 0622 8AE5      		ldi r24,lo8(90)
 1848               	.LVL223:
 1849 0624 0895      		ret
 1850               	.LVL224:
 1851               	.L102:
 190:../src/droplet_init.c **** 		case 0x6597: return 42;
 1852               		.loc 1 190 0
 1853 0626 89E2      		ldi r24,lo8(41)
 1854               	.LVL225:
 1855 0628 0895      		ret
 1856               	.LVL226:
 1857               	.L101:
 189:../src/droplet_init.c **** 		case 0x5FEC: return 41;
 1858               		.loc 1 189 0
 1859 062a 88E2      		ldi r24,lo8(40)
 1860               	.LVL227:
 1861 062c 0895      		ret
 1862               	.LVL228:
 1863               	.L41:
 255:../src/droplet_init.c **** 		case 0x3B49: return 107;
 1864               		.loc 1 255 0
 1865 062e 8AE6      		ldi r24,lo8(106)
 1866               	.LVL229:
 1867 0630 0895      		ret
 1868               	.LVL230:
 1869               	.L99:
 186:../src/droplet_init.c **** 		case 0x5D61: return 38;
 1870               		.loc 1 186 0
 1871 0632 85E2      		ldi r24,lo8(37)
 1872               	.LVL231:
 1873 0634 0895      		ret
 1874               	.LVL232:
 1875               	.L131:
 210:../src/droplet_init.c **** 		case 0x9463: return 62;
 1876               		.loc 1 210 0
 1877 0636 8DE3      		ldi r24,lo8(61)
 1878               	.LVL233:
 1879 0638 0895      		ret
 1880               	.LVL234:
 1881               	.L130:
 209:../src/droplet_init.c **** 		case 0x9420: return 61;
 1882               		.loc 1 209 0
 1883 063a 8CE3      		ldi r24,lo8(60)
 1884               	.LVL235:
 1885 063c 0895      		ret
 1886               	.LVL236:
 1887               	.L133:
 218:../src/droplet_init.c **** 		case 0xA52F: return 70;
 1888               		.loc 1 218 0
 1889 063e 85E4      		ldi r24,lo8(69)
 1890               	.LVL237:
 1891 0640 0895      		ret
 1892               	.LVL238:
 1893               	.L53:
 156:../src/droplet_init.c **** 		case 0x1266: return 8;
 1894               		.loc 1 156 0
 1895 0642 87E0      		ldi r24,lo8(7)
 1896               	.LVL239:
 1897 0644 0895      		ret
 1898               	.LVL240:
 1899               	.L177:
 243:../src/droplet_init.c **** 		case 0xDC64: return 95;
 1900               		.loc 1 243 0
 1901 0646 8EE5      		ldi r24,lo8(94)
 1902               	.LVL241:
 1903 0648 0895      		ret
 1904               	.LVL242:
 1905               	.L176:
 242:../src/droplet_init.c **** 		case 0xDC62: return 94;
 1906               		.loc 1 242 0
 1907 064a 8DE5      		ldi r24,lo8(93)
 1908               	.LVL243:
 1909 064c 0895      		ret
 1910               	.LVL244:
 1911               	.L34:
 270:../src/droplet_init.c **** 	}
 271:../src/droplet_init.c **** 	return 0xFF;
 1912               		.loc 1 271 0
 1913 064e 8FEF      		ldi r24,lo8(-1)
 1914               	.LVL245:
 1915 0650 0895      		ret
 1916               	.LVL246:
 1917               	.L182:
 247:../src/droplet_init.c **** 		case 0xFA6F: return 99;
 1918               		.loc 1 247 0
 1919 0652 82E6      		ldi r24,lo8(98)
 1920               	.LVL247:
 1921 0654 0895      		ret
 1922               	.LVL248:
 1923               	.L148:
 223:../src/droplet_init.c **** 		case 0xB41B: return 75;
 1924               		.loc 1 223 0
 1925 0656 8AE4      		ldi r24,lo8(74)
 1926               	.LVL249:
 1927 0658 0895      		ret
 1928               	.LVL250:
 1929               	.L147:
 222:../src/droplet_init.c **** 		case 0xB36F: return 74;
 1930               		.loc 1 222 0
 1931 065a 89E4      		ldi r24,lo8(73)
 1932               	.LVL251:
 1933 065c 0895      		ret
 1934               	.LVL252:
 1935               	.L152:
 230:../src/droplet_init.c **** 		case 0xC32D: return 82;
 1936               		.loc 1 230 0
 1937 065e 81E5      		ldi r24,lo8(81)
 1938               	.LVL253:
 1939 0660 0895      		ret
 1940               	.LVL254:
 1941               	.L128:
 206:../src/droplet_init.c **** 		case 0x9261: return 58;
 1942               		.loc 1 206 0
 1943 0662 89E3      		ldi r24,lo8(57)
 1944               	.LVL255:
 1945 0664 0895      		ret
 1946               	.LVL256:
 1947               	.L73:
 171:../src/droplet_init.c **** 		case 0x392B: return 23;
 1948               		.loc 1 171 0
 1949 0666 86E1      		ldi r24,lo8(22)
 1950               	.LVL257:
 1951 0668 0895      		ret
 1952               	.LVL258:
 1953               	.L72:
 170:../src/droplet_init.c **** 		case 0x382E: return 22;
 1954               		.loc 1 170 0
 1955 066a 85E1      		ldi r24,lo8(21)
 1956               	.LVL259:
 1957 066c 0895      		ret
 1958               	.LVL260:
 1959               	.L48:
 153:../src/droplet_init.c **** 		case 0x0B68: return 5;
 1960               		.loc 1 153 0
 1961 066e 84E0      		ldi r24,lo8(4)
 1962               	.LVL261:
 1963 0670 0895      		ret
 1964               	.LVL262:
 1965               	.L47:
 257:../src/droplet_init.c **** 		case 0x1F08: return 109;
 1966               		.loc 1 257 0
 1967 0672 8CE6      		ldi r24,lo8(108)
 1968               	.LVL263:
 1969 0674 0895      		ret
 1970               	.LVL264:
 1971               	.L43:
 151:../src/droplet_init.c **** 		case 0x01A9: return 3;
 1972               		.loc 1 151 0
 1973 0676 82E0      		ldi r24,lo8(2)
 1974               	.LVL265:
 1975 0678 0895      		ret
 1976               	.LVL266:
 1977               	.L156:
 225:../src/droplet_init.c **** 		case 0xBC63: return 77;
 1978               		.loc 1 225 0
 1979 067a 8CE4      		ldi r24,lo8(76)
 1980               	.LVL267:
 1981 067c 0895      		ret
 1982               	.LVL268:
 1983               	.L65:
 165:../src/droplet_init.c **** 		case 0x2826: return 17;
 1984               		.loc 1 165 0
 1985 067e 80E1      		ldi r24,lo8(16)
 1986               	.LVL269:
 1987 0680 0895      		ret
 1988               	.LVL270:
 1989               	.L64:
 258:../src/droplet_init.c **** 		case 0xEEB0: return 110;
 1990               		.loc 1 258 0
 1991 0682 8DE6      		ldi r24,lo8(109)
 1992               	.LVL271:
 1993 0684 0895      		ret
 1994               	.LVL272:
 1995               	.L60:
 164:../src/droplet_init.c **** 		case 0x2668: return 16;
 1996               		.loc 1 164 0
 1997 0686 8FE0      		ldi r24,lo8(15)
 1998               	.LVL273:
 1999 0688 0895      		ret
 2000               	.LVL274:
 2001               	.L137:
 212:../src/droplet_init.c **** 		case 0x9564: return 64;
 2002               		.loc 1 212 0
 2003 068a 8FE3      		ldi r24,lo8(63)
 2004               	.LVL275:
 2005 068c 0895      		ret
 2006               	.LVL276:
 2007               	.L94:
 191:../src/droplet_init.c **** 		case 0x6B6F: return 43;
 2008               		.loc 1 191 0
 2009 068e 8AE2      		ldi r24,lo8(42)
 2010               	.LVL277:
 2011 0690 0895      		ret
 2012               	.LVL278:
 2013               	.L164:
 253:../src/droplet_init.c **** 		case 0x4177: return 105;
 2014               		.loc 1 253 0
 2015 0692 88E6      		ldi r24,lo8(104)
 2016               	.LVL279:
 2017 0694 0895      		ret
 2018               	.LVL280:
 2019               	.L110:
 197:../src/droplet_init.c **** 		case 0x73AF: return 49;
 2020               		.loc 1 197 0
 2021 0696 80E3      		ldi r24,lo8(48)
 2022               	.LVL281:
 2023 0698 0895      		ret
 2024               	.LVL282:
 2025               	.L109:
 196:../src/droplet_init.c **** 		case 0x7066: return 48;
 2026               		.loc 1 196 0
 2027 069a 8FE2      		ldi r24,lo8(47)
 2028               	.LVL283:
 2029 069c 0895      		ret
 2030               	.LVL284:
 2031               	.L140:
 217:../src/droplet_init.c **** 		case 0xA250: return 69;
 2032               		.loc 1 217 0
 2033 069e 84E4      		ldi r24,lo8(68)
 2034               	.LVL285:
 2035 06a0 0895      		ret
 2036               	.LVL286:
 2037               	.L139:
 216:../src/droplet_init.c **** 		case 0xA165: return 68;
 2038               		.loc 1 216 0
 2039 06a2 83E4      		ldi r24,lo8(67)
 2040               	.LVL287:
 2041 06a4 0895      		ret
 2042               	.LVL288:
 2043               	.L135:
 214:../src/droplet_init.c **** 		case 0x97A0: return 66;
 2044               		.loc 1 214 0
 2045 06a6 81E4      		ldi r24,lo8(65)
 2046               	.LVL289:
 2047 06a8 0895      		ret
 2048               	.LVL290:
 2049               	.L187:
 149:../src/droplet_init.c **** 		case 0x0029: return 1;
 2050               		.loc 1 149 0
 2051 06aa 80E0      		ldi r24,0
 2052               	.LVL291:
 272:../src/droplet_init.c **** }
 2053               		.loc 1 272 0
 2054 06ac 0895      		ret
 2055               	.LVL292:
 2056               	.L159:
 229:../src/droplet_init.c **** 		case 0xC051: return 81;
 2057               		.loc 1 229 0
 2058 06ae 80E5      		ldi r24,lo8(80)
 2059               	.LVL293:
 2060 06b0 0895      		ret
 2061               	.LVL294:
 2062               	.L158:
 228:../src/droplet_init.c **** 		case 0xBD2D: return 80;
 2063               		.loc 1 228 0
 2064 06b2 8FE4      		ldi r24,lo8(79)
 2065               	.LVL295:
 2066 06b4 0895      		ret
 2067               	.LVL296:
 2068               	.L154:
 226:../src/droplet_init.c **** 		case 0xBC6E: return 78;
 2069               		.loc 1 226 0
 2070 06b6 8DE4      		ldi r24,lo8(77)
 2071               	.LVL297:
 2072 06b8 0895      		ret
 2073               	.LVL298:
 2074               	.L120:
 199:../src/droplet_init.c **** 		case 0x7D13: return 51;
 2075               		.loc 1 199 0
 2076 06ba 82E3      		ldi r24,lo8(50)
 2077               	.LVL299:
 2078 06bc 0895      		ret
 2079               	.LVL300:
 2080               	.L84:
 177:../src/droplet_init.c **** 		case 0x4327: return 29;
 2081               		.loc 1 177 0
 2082 06be 8CE1      		ldi r24,lo8(28)
 2083               	.LVL301:
 2084 06c0 0895      		ret
 2085               	.LVL302:
 2086               	.L83:
 176:../src/droplet_init.c **** 		case 0x3F9D: return 28;
 2087               		.loc 1 176 0
 2088 06c2 8BE1      		ldi r24,lo8(27)
 2089               	.LVL303:
 2090 06c4 0895      		ret
 2091               	.LVL304:
 2092               	.L79:
 174:../src/droplet_init.c **** 		case 0x3D6C: return 26;
 2093               		.loc 1 174 0
 2094 06c6 89E1      		ldi r24,lo8(25)
 2095               	.LVL305:
 2096 06c8 0895      		ret
 2097               	.LVL306:
 2098               	.L62:
 162:../src/droplet_init.c **** 		case 0x18A2: return 14;
 2099               		.loc 1 162 0
 2100 06ca 8DE0      		ldi r24,lo8(13)
 2101               	.LVL307:
 2102 06cc 0895      		ret
 2103               		.cfi_endproc
 2104               	.LFE71:
 2106               		.section	.progmem.data.__c.5444,"a",@progbits
 2109               	__c.5444:
 2110 0000 4552 524F 		.string	"ERROR: Message length 0 for msg_node.\r\n"
 2110      523A 204D 
 2110      6573 7361 
 2110      6765 206C 
 2110      656E 6774 
 2111               		.section	.progmem.data.__c.5440,"a",@progbits
 2114               	__c.5440:
 2115 0000 4572 726F 		.string	"Error: Messages overflow. Too many messages received. Try speeding up your loop if you se
 2115      723A 204D 
 2115      6573 7361 
 2115      6765 7320 
 2115      6F76 6572 
 2116               		.section	.progmem.data.__c.5430,"a",@progbits
 2119               	__c.5430:
 2120 0000 4572 726F 		.string	"Error! We got ahead of the task list and now nothing will execute.\r\n"
 2120      7221 2057 
 2120      6520 676F 
 2120      7420 6168 
 2120      6561 6420 
 2121               	.global	OrderedBotIDs
 2122               		.section	.progmem.data.OrderedBotIDs,"a",@progbits
 2125               	OrderedBotIDs:
 2126 0000 0000      		.word	0
 2127 0002 2900      		.word	41
 2128 0004 2001      		.word	288
 2129 0006 A901      		.word	425
 2130 0008 6B08      		.word	2155
 2131 000a 680B      		.word	2920
 2132 000c 6410      		.word	4196
 2133 000e D311      		.word	4563
 2134 0010 6612      		.word	4710
 2135 0012 AD12      		.word	4781
 2136 0014 6113      		.word	4961
 2137 0016 AA14      		.word	5290
 2138 0018 6215      		.word	5474
 2139 001a 6717      		.word	5991
 2140 001c A218      		.word	6306
 2141 001e 2719      		.word	6439
 2142 0020 6826      		.word	9832
 2143 0022 2628      		.word	10278
 2144 0024 922C      		.word	11410
 2145 0026 6230      		.word	12386
 2146 0028 A732      		.word	12967
 2147 002a 9334      		.word	13459
 2148 002c 2E38      		.word	14382
 2149 002e 2B39      		.word	14635
 2150 0030 2C39      		.word	14636
 2151 0032 613B      		.word	15201
 2152 0034 6C3D      		.word	15724
 2153 0036 6D3F      		.word	16237
 2154 0038 9D3F      		.word	16285
 2155 003a 2743      		.word	17191
 2156 003c A146      		.word	18081
 2157 003e 2E4E      		.word	20014
 2158 0040 D34E      		.word	20179
 2159 0042 6151      		.word	20833
 2160 0044 6452      		.word	21092
 2161 0046 2F5A      		.word	23087
 2162 0048 2F5B      		.word	23343
 2163 004a 685C      		.word	23656
 2164 004c 615D      		.word	23905
 2165 004e 605E      		.word	24160
 2166 0050 2D5F      		.word	24365
 2167 0052 EC5F      		.word	24556
 2168 0054 9765      		.word	26007
 2169 0056 6F6B      		.word	27503
 2170 0058 666C      		.word	27750
 2171 005a 6F6C      		.word	27759
 2172 005c 676E      		.word	28263
 2173 005e 2270      		.word	28706
 2174 0060 6670      		.word	28774
 2175 0062 AF73      		.word	29615
 2176 0064 A175      		.word	30113
 2177 0066 137D      		.word	32019
 2178 0068 DF7E      		.word	32479
 2179 006a 2185      		.word	-31455
 2180 006c 2586      		.word	-31195
 2181 006e 6F89      		.word	-30353
 2182 0070 9C8F      		.word	-28772
 2183 0072 2990      		.word	-28631
 2184 0074 6192      		.word	-28063
 2185 0076 DA92      		.word	-27942
 2186 0078 6393      		.word	-27805
 2187 007a 2094      		.word	-27616
 2188 007c 6394      		.word	-27549
 2189 007e 9594      		.word	-27499
 2190 0080 6495      		.word	-27292
 2191 0082 6996      		.word	-27031
 2192 0084 A097      		.word	-26720
 2193 0086 D8A0      		.word	-24360
 2194 0088 65A1      		.word	-24219
 2195 008a 50A2      		.word	-23984
 2196 008c 2FA5      		.word	-23249
 2197 008e 6AAF      		.word	-20630
 2198 0090 D8AF      		.word	-20520
 2199 0092 22B1      		.word	-20190
 2200 0094 6FB3      		.word	-19601
 2201 0096 1BB4      		.word	-19429
 2202 0098 61B5      		.word	-19103
 2203 009a 63BC      		.word	-17309
 2204 009c 6EBC      		.word	-17298
 2205 009e B5BC      		.word	-17227
 2206 00a0 2DBD      		.word	-17107
 2207 00a2 51C0      		.word	-16303
 2208 00a4 2DC3      		.word	-15571
 2209 00a6 64CB      		.word	-13468
 2210 00a8 ABCB      		.word	-13397
 2211 00aa D1CC      		.word	-13103
 2212 00ac 6BCD      		.word	-12949
 2213 00ae A1CF      		.word	-12383
 2214 00b0 AED0      		.word	-12114
 2215 00b2 D7D2      		.word	-11561
 2216 00b4 66D7      		.word	-10394
 2217 00b6 6CD7      		.word	-10388
 2218 00b8 6CD8      		.word	-10132
 2219 00ba 13D9      		.word	-9965
 2220 00bc 62DC      		.word	-9118
 2221 00be 64DC      		.word	-9116
 2222 00c0 9EDC      		.word	-9058
 2223 00c2 21DD      		.word	-8927
 2224 00c4 64DF      		.word	-8348
 2225 00c6 6FFA      		.word	-1425
 2226 00c8 D0FC      		.word	-816
 2227 00ca 4E2B      		.word	11086
 2228 00cc 787D      		.word	32120
 2229 00ce 468B      		.word	-29882
 2230 00d0 06C8      		.word	-14330
 2231 00d2 7741      		.word	16759
 2232 00d4 0B0A      		.word	2571
 2233 00d6 493B      		.word	15177
 2234 00d8 8C02      		.word	652
 2235 00da 081F      		.word	7944
 2236 00dc B0EE      		.word	-4432
 2237 00de 49A6      		.word	-22967
 2238 00e0 B5A5      		.word	-23115
 2239 00e2 0AF6      		.word	-2550
 2240 00e4 44B9      		.word	-18108
 2241 00e6 0534      		.word	13317
 2242 00e8 BA43      		.word	17338
 2243 00ea 4866      		.word	26184
 2244 00ec 4B1B      		.word	6987
 2245 00ee 4BC2      		.word	-15797
 2246 00f0 B04D      		.word	19888
 2247               		.comm	seedFlag,1,1
 2248               		.comm	myPosCovar,12,1
 2249               		.comm	myPos,6,1
 2250               		.comm	mm_per_kilostep,16,1
 2251               		.comm	motor_adjusts,48,1
 2252               		.comm	rnbProcessingFlag,1,1
 2253               		.comm	rnbCmdSentTime,4,1
 2254               		.comm	rnbCmdID,2,1
 2255               		.comm	rnb_updated,1,1
 2256               		.comm	last_good_rnb,8,1
 2257               		.comm	cmd_sender_dir,1,1
 2258               		.comm	cmd_arrival_dir,1,1
 2259               		.comm	cmd_sender_id,2,1
 2260               		.comm	cmd_arrival_time,4,1
 2261               		.comm	user_facing_messages_ovf,1,1
 2262               		.comm	num_waiting_msgs,1,1
 2263               		.comm	hp_ir_block_bm,1,1
 2264               		.comm	msg_node,294,1
 2265               		.comm	ir_rxtx,342,1
 2266               		.comm	obsStart,2,1
 2267               		.comm	curr_ir_power,2,1
 2268               		.comm	twi,2,1
 2269               		.comm	twiMaster,25,1
 2270               		.section	.bss.task_storage_arr,"aw",@nobits
 2273               	task_storage_arr:
 2274 0000 0000 0000 		.zero	140
 2274      0000 0000 
 2274      0000 0000 
 2274      0000 0000 
 2274      0000 0000 
 2275               		.comm	task_executing,1,1
 2276               		.comm	num_tasks,1,1
 2277               		.comm	task_list,2,1
 2278               		.comm	rtc_epoch,2,1
 2279               		.comm	droplet_ID,2,1
 2280               		.text
 2281               	.Letext0:
 2282               		.file 6 "c:\\program files (x86)\\atmel\\studio\\7.0\\toolchain\\avr8\\avr8-gnu-toolchain\\avr\\in
 2283               		.file 7 "C:/Program Files (x86)/Atmel/Studio/7.0/Packs/atmel/XMEGAA_DFP/1.1.68/include/avr/iox128a
 2284               		.file 8 "../include/i2c.h"
 2285               		.file 9 "../include/firefly_sync.h"
 2286               		.file 10 "../include/ir_comm.h"
 2287               		.file 11 "../include/range_algs.h"
 2288               		.file 12 "../include/localization.h"
 2289               		.file 13 "../include/droplet_init.h"
 2290               		.file 14 "../include/ir_led.h"
 2291               		.file 15 "../include/motor.h"
 2292               		.file 16 "../include/rgb_led.h"
 2293               		.file 17 "../include/pc_comm.h"
 2294               		.file 18 "../include/power.h"
 2295               		.file 19 "../include/rgb_sensor.h"
 2296               		.file 20 "../include/ir_sensor.h"
 2297               		.file 21 "../include/random.h"
 2298               		.file 22 "c:\\program files (x86)\\atmel\\studio\\7.0\\toolchain\\avr8\\avr8-gnu-toolchain\\avr\\i