   1               		.file	"localization.c"
   2               	__SP_H__ = 0x3e
   3               	__SP_L__ = 0x3d
   4               	__SREG__ = 0x3f
   5               	__RAMPZ__ = 0x3b
   6               	__CCP__ = 0x34
   7               	__tmp_reg__ = 0
   8               	__zero_reg__ = 1
   9               		.text
  10               	.Ltext0:
  11               		.cfi_sections	.debug_frame
  12               	.global	__mulsf3
  13               	.global	__gtsf2
  14               	.global	__ltsf2
  15               	.global	__fixunssfsi
  16               	.global	__fixsfsi
  17               		.section	.text.compressP,"ax",@progbits
  19               	compressP:
  20               	.LFB75:
  21               		.file 1 "../src/localization.c"
   1:../src/localization.c **** #include "localization.h"
   2:../src/localization.c **** 
   3:../src/localization.c **** #define NUM_SEEDS 4
   4:../src/localization.c **** 
   5:../src/localization.c **** const BotPos SEED_POS[NUM_SEEDS] = {{50,50,0}, {200,50,0}, {50,200,0}, {200,200,0}};
   6:../src/localization.c **** const id_t   SEED_IDS[NUM_SEEDS] = {0x7EDF, 0x1361, 0x6C66, 0x9669};
   7:../src/localization.c **** 
   8:../src/localization.c **** //const BotPos SEEDS[NUM_SEEDS] = {{100, 600, 0}, {600, 600, 0}, {100, 100, 0}, {600, 100, 0}};
   9:../src/localization.c **** 
  10:../src/localization.c **** //The MIN and MAX values below are only needed for getPosColor.
  11:../src/localization.c **** #define MIN_X 0
  12:../src/localization.c **** #define MIN_Y 0
  13:../src/localization.c **** #define MAX_X 250
  14:../src/localization.c **** #define MAX_Y 250
  15:../src/localization.c **** 
  16:../src/localization.c **** static float	chooseOmega(Matrix* myPinv, Matrix* yourPinv);
  17:../src/localization.c **** static float	mahalanobisDistance(Vector* a, Matrix* A, Vector* b, Matrix* B);
  18:../src/localization.c **** static void		covarIntersection(Vector* x, Matrix* P, Vector* a, Matrix* A, Vector* b, Matrix* B);
  19:../src/localization.c **** static void		covarUnion(Vector* x, Matrix* P, Vector* a, Matrix* A, Vector* b, Matrix* B);
  20:../src/localization.c **** static void		updatePos(BotPos* pos, Matrix* yourP);
  21:../src/localization.c **** static void		getMeasCovar(Matrix* R, Vector* meas);
  22:../src/localization.c **** static void		calcRelativePose(Vector* pose, Vector* meas);
  23:../src/localization.c **** static void		populateGammaMatrix(Matrix* G, Vector* pos);
  24:../src/localization.c **** static void		populateHMatrix(Matrix* H, Vector* x_me, Vector* x_you);
  25:../src/localization.c **** static void		compressP(Matrix* P, DensePosCovar* covar);
  26:../src/localization.c **** static void		decompressP(Matrix* P, DensePosCovar* covar);
  27:../src/localization.c **** static void		prepBotMeasMsg(id_t id, uint16_t r, int16_t b, BotPos* pos, DensePosCovar* covar);
  28:../src/localization.c **** static uint32_t getBackoffTime(uint8_t N, uint16_t r);
  29:../src/localization.c **** static float	discreteTriangularPDF(float x, uint8_t max, uint16_t r);
  30:../src/localization.c **** 
  31:../src/localization.c **** static const Matrix measCovarClose  = {{100, -0.75, 0.1}, {-0.75, 0.03, 0.025}, {0.1, 0.025, 0.1}};
  32:../src/localization.c **** static const Matrix measCovarMed = {{450, 0.15, 0.75}, {0.15, 0.05, 0.1}, {0.75, 0.1, 0.25}};
  33:../src/localization.c **** static const Matrix measCovarFar = {{2000, -5, -0.1}, {-5, 0.6, 0.5}, {-0.1, 0.5, 1.0}};
  34:../src/localization.c **** //static const Matrix xyMeasCovarClose  = {{100, 2, 0.5}, {2, 100, 0.75}, {0.5, 0.75, 0.05}};
  35:../src/localization.c **** //static const Matrix xyMeasCovarMed = {{500, 100, -4}, {100, 500, -0.5}, {-4, -0.5, 0.2}};
  36:../src/localization.c **** //static const Matrix xyMeasCovarFar = {{8000, -1000, -0.25}, {-1000, 8000, -10}, {-0.25, -10, 1}};
  37:../src/localization.c **** 
  38:../src/localization.c **** void localization_init(){
  39:../src/localization.c **** 	myPos.x = UNDF;
  40:../src/localization.c **** 	myPos.y = UNDF;
  41:../src/localization.c **** 	myPos.o = UNDF;
  42:../src/localization.c **** 	for(uint8_t i=0;i<6;i++){
  43:../src/localization.c **** 		myPosCovar[i].u = 0;
  44:../src/localization.c **** 	}
  45:../src/localization.c **** 	seedFlag = 0;
  46:../src/localization.c **** 	for(uint8_t i=0;i<NUM_SEEDS;i++){
  47:../src/localization.c **** 		if(get_droplet_id()==SEED_IDS[i]){
  48:../src/localization.c **** 			seedFlag = 1;
  49:../src/localization.c **** 			myPos.x = SEED_POS[i].x;
  50:../src/localization.c **** 			myPos.y = SEED_POS[i].y;
  51:../src/localization.c **** 			myPos.o = SEED_POS[i].o;
  52:../src/localization.c **** 			myPosCovar[0].u = 1; //the actual value used will be this*8
  53:../src/localization.c **** 			myPosCovar[3].u = 1; //the actual value used will be this*8
  54:../src/localization.c **** 			myPosCovar[5].u = 16; //the actual value used will be this/256
  55:../src/localization.c **** 			break;
  56:../src/localization.c **** 		}
  57:../src/localization.c **** 	}
  58:../src/localization.c **** 
  59:../src/localization.c **** }
  60:../src/localization.c **** 
  61:../src/localization.c **** /************************************************************************/
  62:../src/localization.c **** /* omega: selected to minimize (omega*myPinv + (1-omega)*yourPinv)^{-1} */
  63:../src/localization.c **** /* but that's hard. So, insted we're doing a cheat, as described in		*/
  64:../src/localization.c **** /* Franken & Hupper's 2005 Information Fusion paper, "Improved Fast		*/
  65:../src/localization.c **** /* Covariance Intersection for Distributed Data Fusion"					*/
  66:../src/localization.c **** /************************************************************************/
  67:../src/localization.c **** static float chooseOmega(Matrix* myPinv, Matrix* yourPinv){
  68:../src/localization.c **** 	float omega;
  69:../src/localization.c **** 	Matrix sum;
  70:../src/localization.c **** 	matrixAdd(&sum, myPinv, yourPinv);
  71:../src/localization.c **** 	float sumDet = matrixDet(&sum);
  72:../src/localization.c **** 	float myInvDet = matrixDet(myPinv);
  73:../src/localization.c **** 	float yourInvDet = matrixDet(yourPinv);
  74:../src/localization.c **** 	omega = (sumDet - yourInvDet + myInvDet)/(2*sumDet);
  75:../src/localization.c **** 	omega = omega>1.0 ? 1.0 : (omega<0.0 ? 0.0 : omega);
  76:../src/localization.c **** 	return omega;
  77:../src/localization.c **** }
  78:../src/localization.c **** 
  79:../src/localization.c **** static float mahalanobisDistance(Vector* a, Matrix* A, Vector* b, Matrix* B){
  80:../src/localization.c **** 	Vector a_sub_b;
  81:../src/localization.c **** 	vectorSubtract(&a_sub_b, a, b);
  82:../src/localization.c **** 	Matrix A_plus_B_inv;
  83:../src/localization.c **** 	matrixAdd(&A_plus_B_inv, A, B);
  84:../src/localization.c **** 	matrixInplaceInverse(&A_plus_B_inv);
  85:../src/localization.c **** 	Vector a_sub_b_normed;
  86:../src/localization.c **** 	matrixTimesVector(&a_sub_b_normed, &A_plus_B_inv, &a_sub_b);
  87:../src/localization.c **** 	//Now, a_sub_b_normed = (A+B)^{-1} X (a-b)
  88:../src/localization.c **** 	float distance = a_sub_b[0]*a_sub_b_normed[0] + a_sub_b[1]*a_sub_b_normed[1] + a_sub_b[2]*a_sub_b_
  89:../src/localization.c **** 	//Now, distance = (a-b)^{tr} X (A+B)^{-1} X (a-b)
  90:../src/localization.c **** 	return distance;
  91:../src/localization.c **** }
  92:../src/localization.c **** 
  93:../src/localization.c **** /*
  94:../src/localization.c ****  * P is covar matrix resulting from CI of A & B (with means a & b, respectively)
  95:../src/localization.c ****  * x is resulting mean.
  96:../src/localization.c ****  * CITE:
  97:../src/localization.c ****  * "Decentralized Multi-robot Cooperative Localization using Covariance Intersection"
  98:../src/localization.c ****  * by Luic C. Carillo-Arce et. al.
  99:../src/localization.c ****  */
 100:../src/localization.c **** static void covarIntersection(Vector* x, Matrix* P, Vector* a, Matrix* A, Vector* b, Matrix* B){
 101:../src/localization.c **** 	Matrix A_inv;
 102:../src/localization.c **** 	matrixInverse(&A_inv, A);
 103:../src/localization.c **** 	Matrix B_inv;
 104:../src/localization.c **** 	matrixInverse(&B_inv, B);
 105:../src/localization.c **** 	float omega = chooseOmega(&A_inv, &B_inv);
 106:../src/localization.c **** 	//myNewP = (omega*myPinv + (1-omega)*yourPinv)^{-1}
 107:../src/localization.c **** 	matrixScale(&A_inv, omega);
 108:../src/localization.c **** 	matrixScale(&B_inv, 1.0-omega);
 109:../src/localization.c **** 	matrixAdd(P, &A_inv, &B_inv);
 110:../src/localization.c **** 	matrixInplaceInverse(P);
 111:../src/localization.c **** 	//myNewPos = myNewP*(omega*myPinv*myPrevPos + (1-omega)*yourPinv*yourPos)
 112:../src/localization.c **** 	matrixTimesVector(x, &A_inv, a);
 113:../src/localization.c **** 	Vector tmp;
 114:../src/localization.c **** 	matrixTimesVector(&tmp, &B_inv, b);
 115:../src/localization.c **** 	vectorAdd(&tmp, x, &tmp);
 116:../src/localization.c **** 	matrixTimesVector(x, P, &tmp);
 117:../src/localization.c **** }
 118:../src/localization.c **** 
 119:../src/localization.c **** /*
 120:../src/localization.c ****  * x is the mean we will use.
 121:../src/localization.c ****  * U is the computed covar matrix, guaranteed to be consistent with (a,A) and (b,B)
 122:../src/localization.c ****  * CITE:
 123:../src/localization.c ****  * "Generalized Covariance Union: A Unified Approach to Hypothesis Merging in Tracking"
 124:../src/localization.c ****  * by Steven Reece and Stephen Roberts
 125:../src/localization.c ****  */
 126:../src/localization.c **** static void covarUnion(Vector* x, Matrix* U, Vector* a, Matrix* A, Vector* b, Matrix* B){
 127:../src/localization.c **** 	Vector a_dist;
 128:../src/localization.c **** 	vectorSubtract(&a_dist, x, a);
 129:../src/localization.c **** 	Matrix U_a;
 130:../src/localization.c **** 	vectorSquare(&U_a, &a_dist);
 131:../src/localization.c **** 	matrixAdd(&U_a, A, &U_a);
 132:../src/localization.c **** 
 133:../src/localization.c **** 	Vector b_dist;
 134:../src/localization.c **** 	vectorSubtract(&b_dist, x, b);
 135:../src/localization.c **** 	Matrix U_b;
 136:../src/localization.c **** 	vectorSquare(&U_b, &b_dist);
 137:../src/localization.c **** 	matrixAdd(&U_b, B, &U_b);
 138:../src/localization.c **** 	Matrix S;
 139:../src/localization.c **** 	choleskyDecomposition(&S, &U_b);
 140:../src/localization.c **** 	Matrix S_tr;
 141:../src/localization.c **** 	matrixTranspose(&S_tr, &S);
 142:../src/localization.c **** 
 143:../src/localization.c **** 	Matrix S_inv;
 144:../src/localization.c **** 	matrixInverse(&S_inv, &S);
 145:../src/localization.c **** 
 146:../src/localization.c **** 	Matrix TMP;
 147:../src/localization.c **** 	matrixMultiply(&TMP, &U_a, &S_inv);
 148:../src/localization.c **** 	matrixInplaceTranspose(&S_inv);
 149:../src/localization.c **** 	matrixInplaceMultiply(&TMP, &S_inv, &TMP);
 150:../src/localization.c **** 
 151:../src/localization.c **** 	Vector eigVals;
 152:../src/localization.c **** 	Matrix V_tr; //eigenVectors
 153:../src/localization.c **** 	eigensystem(&eigVals, &V_tr, &TMP);
 154:../src/localization.c **** 	Matrix D = {{eigVals[0], 0, 0}, {0, eigVals[1], 0}, {0, 0, eigVals[2]}};
 155:../src/localization.c **** 
 156:../src/localization.c **** 	Matrix V;
 157:../src/localization.c **** 	matrixTranspose(&V, &V_tr);
 158:../src/localization.c **** 
 159:../src/localization.c **** 	Matrix C = {{1,0,0},{0,1,0},{0,0,1}};
 160:../src/localization.c **** 	for(uint8_t i=0;i<3;i++){
 161:../src/localization.c **** 		C[i][i] = D[i][i]>1 ? D[i][i] : 1;
 162:../src/localization.c **** 	}
 163:../src/localization.c **** 	matrixMultiply(&TMP, &V_tr, &S);
 164:../src/localization.c **** 	matrixMultiply(U, &V, &C);
 165:../src/localization.c **** 	matrixInplaceMultiply(U, U, &TMP);
 166:../src/localization.c **** 	matrixInplaceMultiply(U, &S_tr, U);
 167:../src/localization.c **** }
 168:../src/localization.c **** 
 169:../src/localization.c **** /*
 170:../src/localization.c ****  * This function updates my position estimate based on a new position estimate.
 171:../src/localization.c ****  * pos is the new position estimate.
 172:../src/localization.c ****  * yourP is the new position estimate's covariance matrix.
 173:../src/localization.c ****  */
 174:../src/localization.c **** static void updatePos(BotPos* pos, Matrix* yourP){
 175:../src/localization.c **** 	Vector xMe = {myPos.x, myPos.y, deg_to_rad(myPos.o)};
 176:../src/localization.c **** 	if(!POS_DEFINED(pos)){
 177:../src/localization.c **** 		MY_POS_DEBUG_PRINT(" sent me an undefined position.\r\n");
 178:../src/localization.c **** 		return;
 179:../src/localization.c **** 	}
 180:../src/localization.c **** 	MY_POS_DEBUG_PRINT("thinks I'm at {%d, %d, %d}", pos->x, pos->y, pos->o);
 181:../src/localization.c **** 	Vector xMeFromYou = {pos->x, pos->y, deg_to_rad(pos->o)};
 182:../src/localization.c **** 	Matrix myP;
 183:../src/localization.c **** 	decompressP(&myP, &myPosCovar);
 184:../src/localization.c **** 	Matrix myNewP;
 185:../src/localization.c **** 	Vector myNewPos;
 186:../src/localization.c **** 
 187:../src/localization.c **** 	float mDist = mahalanobisDistance(&xMe, &myP, &xMeFromYou, yourP);
 188:../src/localization.c **** 	mDist = sqrtf(mDist); //The way this value scales, taking the square root seems reasonable.
 189:../src/localization.c **** 	covarIntersection(&myNewPos, &myNewP, &xMe, &myP, &xMeFromYou, yourP);
 190:../src/localization.c **** 	if(mDist>4.0){
 191:../src/localization.c **** 		//This mDist corresponds to a likelihood (of consistency..?) of ~0.1%
 192:../src/localization.c **** 		//Based on cumulative chi-squared distribution.
 193:../src/localization.c **** 		MY_POS_DEBUG_PRINT(" but the mahalanobis distance (%5.2f) is too large.\r\n", mDist);
 194:../src/localization.c **** 		return;
 195:../src/localization.c **** 		}else if(mDist>1.0){
 196:../src/localization.c **** 		//This mDist corresponds to a likelihood (of consistency..?) of ~80%
 197:../src/localization.c **** 		//Based on cumulative chi-squared distribution.
 198:../src/localization.c **** 		covarUnion(&myNewPos, &myNewP, &xMe, &myP, &xMeFromYou, yourP);
 199:../src/localization.c **** 		if(!positiveDefiniteQ(&myNewP)){
 200:../src/localization.c **** 			MY_POS_DEBUG_PRINT(" but covar union resulted in non-positive-definite P.\r\n");
 201:../src/localization.c **** 			return;
 202:../src/localization.c **** 		}
 203:../src/localization.c **** 	}
 204:../src/localization.c **** 
 205:../src/localization.c **** 	myPos.x = myNewPos[0]>8191 ? 8191 : (myNewPos[0]<-8192 ? -8192 : myNewPos[0]);
 206:../src/localization.c **** 	myPos.y = myNewPos[1]>8191 ? 8191 : (myNewPos[1]<-8192 ? -8192 : myNewPos[1]);
 207:../src/localization.c **** 	myPos.o = (rad_to_deg(myNewPos[2]) + 0.5);
 208:../src/localization.c **** 	MY_POS_DEBUG_PRINT(" giving pos {%d, %d, %d}.\r\n", myPos.x, myPos.y, myPos.o);
 209:../src/localization.c **** 	MY_POS_DEBUG_PRINT("\tMahalanobis Distance: %f\r\n", mDist);
 210:../src/localization.c **** 	#if defined(MY_POS_DEBUG_MODE) && defined(COVAR_DEBUG_MODE)
 211:../src/localization.c **** 		MY_POS_DEBUG_PRINT("Your Update Covar:\r\n");
 212:../src/localization.c **** 		printMatrixMathematica(yourP);
 213:../src/localization.c **** 		MY_POS_DEBUG_PRINT("My new covar=\r\n");
 214:../src/localization.c **** 		printMatrixMathematica(&myNewP);
 215:../src/localization.c **** 	#endif
 216:../src/localization.c **** 	compressP(&myNewP, &myPosCovar);
 217:../src/localization.c **** }
 218:../src/localization.c **** 
 219:../src/localization.c **** /*
 220:../src/localization.c ****  * This function uses H, the Jacobian of the transformation matrix from an (r,b,h) measurement to 
 221:../src/localization.c ****  * a relative position estimate (deltaX, deltaY, deltaO).
 222:../src/localization.c ****  * This is used to compute the estimated covariance for a relative position estimate, based on a
 223:../src/localization.c ****  * hard-coded covariance for an (r,b,h) measurement.
 224:../src/localization.c ****  * The hard-coded covariances are based on empirical data. Three such matrices are stored and chose
 225:../src/localization.c ****  * between based on the measured distance from the other robot.
 226:../src/localization.c ****  *
 227:../src/localization.c ****  * NOTE/TODO: It would be simpler to just calculate and use a hard-coded covariance for the relativ
 228:../src/localization.c ****  * position estimate. This approach feels more accurate to me, but I haven't empirically determined
 229:../src/localization.c ****  * that it makes a difference.
 230:../src/localization.c ****  */
 231:../src/localization.c **** static void getMeasCovar(Matrix* R, Vector* meas){
 232:../src/localization.c **** 	static const Matrix* start;
 233:../src/localization.c **** 	if((*meas)[0]<=80){
 234:../src/localization.c **** 		start = &measCovarClose;
 235:../src/localization.c **** 	}else if((*meas)[0]<=140){
 236:../src/localization.c **** 		start = &measCovarMed;
 237:../src/localization.c **** 	}else{
 238:../src/localization.c **** 		start = &measCovarFar;
 239:../src/localization.c **** 	}
 240:../src/localization.c **** 	matrixCopy(R, (Matrix*)start);
 241:../src/localization.c **** 	Matrix H;
 242:../src/localization.c **** 	float cosO = cos((*meas)[1]);
 243:../src/localization.c **** 	float sinO = sin((*meas)[1]);
 244:../src/localization.c **** 	H[0][0] = cosO;    H[0][1] = -((*meas)[0])*sinO;    H[0][2] = 0;
 245:../src/localization.c **** 	H[1][0] = sinO;    H[1][1] =  ((*meas)[0])*cosO;    H[1][2] = 0;
 246:../src/localization.c **** 	H[2][0] =    0;    H[2][1] =                  0;    H[2][2] = 1;
 247:../src/localization.c **** 	matrixInplaceMultiply(R, &H, R);
 248:../src/localization.c **** 	matrixInplaceTranspose(&H);
 249:../src/localization.c **** 	matrixInplaceMultiply(R, R, &H);
 250:../src/localization.c **** }
 251:../src/localization.c **** 
 252:../src/localization.c **** static void calcRelativePose(Vector* pose, Vector* meas){
 253:../src/localization.c **** 	(*pose)[0] = (*meas)[0] * cos((*meas)[1]);
 254:../src/localization.c **** 	(*pose)[1] = (*meas)[0] * sin((*meas)[1]);
 255:../src/localization.c **** 	(*pose)[2] = (*meas)[2];
 256:../src/localization.c **** }
 257:../src/localization.c **** 
 258:../src/localization.c **** void relativePosition(uint16_t r, int16_t b, int16_t h, BotPos* pos, Vector* myPos){
 259:../src/localization.c **** 	Vector x_you = {pos->x, pos->y, deg_to_rad(pos->o)};
 260:../src/localization.c **** 	int16_t otherBotB;
 261:../src/localization.c **** 	int16_t otherBotH;
 262:../src/localization.c **** 	convertMeas(&otherBotB, &otherBotH, b, h);
 263:../src/localization.c **** 	Vector meas = {r, deg_to_rad(otherBotB+90), deg_to_rad(otherBotH+90)};
 264:../src/localization.c **** 	Matrix G;
 265:../src/localization.c **** 	populateGammaMatrix(&G, &x_you);
 266:../src/localization.c **** 	Vector z;
 267:../src/localization.c **** 	calcRelativePose(&z, &meas);
 268:../src/localization.c **** 	Matrix R;
 269:../src/localization.c **** 	getMeasCovar(&R, &meas);
 270:../src/localization.c **** 	
 271:../src/localization.c **** 	matrixTimesVector(myPos, &G, &z);
 272:../src/localization.c **** 	vectorAdd(myPos, &x_you, myPos);		
 273:../src/localization.c **** }
 274:../src/localization.c **** 
 275:../src/localization.c **** static void populateGammaMatrix(Matrix* G, Vector* pos){
 276:../src/localization.c **** 	float cosO = cos((*pos)[2]);
 277:../src/localization.c **** 	float sinO = sin((*pos)[2]);
 278:../src/localization.c **** 	(*G)[0][0] = cosO;    (*G)[0][1] = -sinO;    (*G)[0][2] = 0;
 279:../src/localization.c **** 	(*G)[1][0] = sinO;    (*G)[1][1] =  cosO;    (*G)[1][2] = 0;
 280:../src/localization.c **** 	(*G)[2][0] = 0;       (*G)[2][1] = 0;        (*G)[2][2] = 1;
 281:../src/localization.c **** }
 282:../src/localization.c **** 
 283:../src/localization.c **** static void populateHMatrix(Matrix* H, Vector* x_me, Vector* x_you){
 284:../src/localization.c **** 	(*H)[0][0] = 1;    (*H)[0][1] = 0;    (*H)[0][2] = (*x_me)[1] - (*x_you)[1];
 285:../src/localization.c **** 	(*H)[1][0] = 0;    (*H)[1][1] = 1;    (*H)[1][2] = (*x_you)[0] - (*x_me)[0];
 286:../src/localization.c **** 	(*H)[2][0] = 0;    (*H)[2][1] = 0;    (*H)[2][2] = 1;
 287:../src/localization.c **** }
 288:../src/localization.c **** 
 289:../src/localization.c **** //Takes covariance matrix P and packs it to a DensePosCovar covar.
 290:../src/localization.c **** static void compressP(Matrix* P, DensePosCovar* covar){
  22               		.loc 1 290 0
  23               		.cfi_startproc
  24               	.LVL0:
  25 0000 2F92      		push r2
  26               	.LCFI0:
  27               		.cfi_def_cfa_offset 4
  28               		.cfi_offset 2, -3
  29 0002 3F92      		push r3
  30               	.LCFI1:
  31               		.cfi_def_cfa_offset 5
  32               		.cfi_offset 3, -4
  33 0004 4F92      		push r4
  34               	.LCFI2:
  35               		.cfi_def_cfa_offset 6
  36               		.cfi_offset 4, -5
  37 0006 5F92      		push r5
  38               	.LCFI3:
  39               		.cfi_def_cfa_offset 7
  40               		.cfi_offset 5, -6
  41 0008 6F92      		push r6
  42               	.LCFI4:
  43               		.cfi_def_cfa_offset 8
  44               		.cfi_offset 6, -7
  45 000a 7F92      		push r7
  46               	.LCFI5:
  47               		.cfi_def_cfa_offset 9
  48               		.cfi_offset 7, -8
  49 000c 8F92      		push r8
  50               	.LCFI6:
  51               		.cfi_def_cfa_offset 10
  52               		.cfi_offset 8, -9
  53 000e 9F92      		push r9
  54               	.LCFI7:
  55               		.cfi_def_cfa_offset 11
  56               		.cfi_offset 9, -10
  57 0010 AF92      		push r10
  58               	.LCFI8:
  59               		.cfi_def_cfa_offset 12
  60               		.cfi_offset 10, -11
  61 0012 BF92      		push r11
  62               	.LCFI9:
  63               		.cfi_def_cfa_offset 13
  64               		.cfi_offset 11, -12
  65 0014 CF92      		push r12
  66               	.LCFI10:
  67               		.cfi_def_cfa_offset 14
  68               		.cfi_offset 12, -13
  69 0016 DF92      		push r13
  70               	.LCFI11:
  71               		.cfi_def_cfa_offset 15
  72               		.cfi_offset 13, -14
  73 0018 EF92      		push r14
  74               	.LCFI12:
  75               		.cfi_def_cfa_offset 16
  76               		.cfi_offset 14, -15
  77 001a FF92      		push r15
  78               	.LCFI13:
  79               		.cfi_def_cfa_offset 17
  80               		.cfi_offset 15, -16
  81 001c 0F93      		push r16
  82               	.LCFI14:
  83               		.cfi_def_cfa_offset 18
  84               		.cfi_offset 16, -17
  85 001e 1F93      		push r17
  86               	.LCFI15:
  87               		.cfi_def_cfa_offset 19
  88               		.cfi_offset 17, -18
  89 0020 CF93      		push r28
  90               	.LCFI16:
  91               		.cfi_def_cfa_offset 20
  92               		.cfi_offset 28, -19
  93 0022 DF93      		push r29
  94               	.LCFI17:
  95               		.cfi_def_cfa_offset 21
  96               		.cfi_offset 29, -20
  97               	/* prologue: function */
  98               	/* frame size = 0 */
  99               	/* stack size = 18 */
 100               	.L__stack_usage = 18
 101 0024 8C01      		movw r16,r24
 102 0026 4B01      		movw r8,r22
 291:../src/localization.c **** 	(*P)[0][0] = (1/8.0)*(*P)[0][0];    (*P)[0][1] = (1/16.0)*(*P)[0][1];    (*P)[0][2] =  16.0*(*P)[0
 103               		.loc 1 291 0
 104 0028 20E0      		ldi r18,0
 105 002a 30E0      		ldi r19,0
 106 002c 40E0      		ldi r20,0
 107 002e 5EE3      		ldi r21,lo8(62)
 108 0030 FC01      		movw r30,r24
 109 0032 6081      		ld r22,Z
 110 0034 7181      		ldd r23,Z+1
 111 0036 8281      		ldd r24,Z+2
 112 0038 9381      		ldd r25,Z+3
 113               	.LVL1:
 114 003a 0E94 0000 		call __mulsf3
 115               	.LVL2:
 116 003e 7B01      		movw r14,r22
 117 0040 D82F      		mov r29,r24
 118 0042 C92F      		mov r28,r25
 119 0044 CB01      		movw r24,r22
 120 0046 AD2F      		mov r26,r29
 121 0048 BC2F      		mov r27,r28
 122 004a F801      		movw r30,r16
 123 004c 8083      		st Z,r24
 124 004e 9183      		std Z+1,r25
 125 0050 A283      		std Z+2,r26
 126 0052 B383      		std Z+3,r27
 127 0054 20E0      		ldi r18,0
 128 0056 30E0      		ldi r19,0
 129 0058 40E8      		ldi r20,lo8(-128)
 130 005a 5DE3      		ldi r21,lo8(61)
 131 005c 6481      		ldd r22,Z+4
 132 005e 7581      		ldd r23,Z+5
 133 0060 8681      		ldd r24,Z+6
 134 0062 9781      		ldd r25,Z+7
 135 0064 0E94 0000 		call __mulsf3
 136               	.LVL3:
 137 0068 F801      		movw r30,r16
 138 006a 6483      		std Z+4,r22
 139 006c 7583      		std Z+5,r23
 140 006e 8683      		std Z+6,r24
 141 0070 9783      		std Z+7,r25
 142 0072 20E0      		ldi r18,0
 143 0074 30E0      		ldi r19,0
 144 0076 40E8      		ldi r20,lo8(-128)
 145 0078 51E4      		ldi r21,lo8(65)
 146 007a 6085      		ldd r22,Z+8
 147 007c 7185      		ldd r23,Z+9
 148 007e 8285      		ldd r24,Z+10
 149 0080 9385      		ldd r25,Z+11
 150 0082 0E94 0000 		call __mulsf3
 151               	.LVL4:
 152 0086 F801      		movw r30,r16
 153 0088 6087      		std Z+8,r22
 154 008a 7187      		std Z+9,r23
 155 008c 8287      		std Z+10,r24
 156 008e 9387      		std Z+11,r25
 292:../src/localization.c **** 	(*P)[1][1] = (1/8.0)*(*P)[1][1];     (*P)[1][2] =  16.0*(*P)[1][2];
 157               		.loc 1 292 0
 158 0090 20E0      		ldi r18,0
 159 0092 30E0      		ldi r19,0
 160 0094 40E0      		ldi r20,0
 161 0096 5EE3      		ldi r21,lo8(62)
 162 0098 6089      		ldd r22,Z+16
 163 009a 7189      		ldd r23,Z+17
 164 009c 8289      		ldd r24,Z+18
 165 009e 9389      		ldd r25,Z+19
 166 00a0 0E94 0000 		call __mulsf3
 167               	.LVL5:
 168 00a4 F801      		movw r30,r16
 169 00a6 608B      		std Z+16,r22
 170 00a8 718B      		std Z+17,r23
 171 00aa 828B      		std Z+18,r24
 172 00ac 938B      		std Z+19,r25
 173 00ae 20E0      		ldi r18,0
 174 00b0 30E0      		ldi r19,0
 175 00b2 40E8      		ldi r20,lo8(-128)
 176 00b4 51E4      		ldi r21,lo8(65)
 177 00b6 6489      		ldd r22,Z+20
 178 00b8 7589      		ldd r23,Z+21
 179 00ba 8689      		ldd r24,Z+22
 180 00bc 9789      		ldd r25,Z+23
 181 00be 0E94 0000 		call __mulsf3
 182               	.LVL6:
 183 00c2 F801      		movw r30,r16
 184 00c4 648B      		std Z+20,r22
 185 00c6 758B      		std Z+21,r23
 186 00c8 868B      		std Z+22,r24
 187 00ca 978B      		std Z+23,r25
 293:../src/localization.c **** 	(*P)[2][2] = 256.0*(*P)[2][2];
 188               		.loc 1 293 0
 189 00cc 20E0      		ldi r18,0
 190 00ce 30E0      		ldi r19,0
 191 00d0 40E8      		ldi r20,lo8(-128)
 192 00d2 53E4      		ldi r21,lo8(67)
 193 00d4 60A1      		ldd r22,Z+32
 194 00d6 71A1      		ldd r23,Z+33
 195 00d8 82A1      		ldd r24,Z+34
 196 00da 93A1      		ldd r25,Z+35
 197 00dc 0E94 0000 		call __mulsf3
 198               	.LVL7:
 199 00e0 F801      		movw r30,r16
 200 00e2 60A3      		std Z+32,r22
 201 00e4 71A3      		std Z+33,r23
 202 00e6 82A3      		std Z+34,r24
 203 00e8 93A3      		std Z+35,r25
 204               	.LVL8:
 205 00ea 6801      		movw r12,r16
 206 00ec A12C      		mov r10,__zero_reg__
 207 00ee B12C      		mov r11,__zero_reg__
 208               	.LBB151:
 294:../src/localization.c **** 
 295:../src/localization.c **** 	for(uint8_t i=0;i<3;i++){
 209               		.loc 1 295 0
 210 00f0 212C      		mov r2,__zero_reg__
 211               	.LVL9:
 212               	.L11:
 296:../src/localization.c **** 		(*P)[i][i] = ((*P)[i][i] > 65535) ? 65535 : (*P)[i][i];
 213               		.loc 1 296 0
 214 00f2 20E0      		ldi r18,0
 215 00f4 3FEF      		ldi r19,lo8(-1)
 216 00f6 4FE7      		ldi r20,lo8(127)
 217 00f8 57E4      		ldi r21,lo8(71)
 218 00fa B701      		movw r22,r14
 219 00fc 8D2F      		mov r24,r29
 220 00fe 9C2F      		mov r25,r28
 221 0100 0E94 0000 		call __gtsf2
 222               	.LVL10:
 223 0104 1816      		cp __zero_reg__,r24
 224 0106 04F4      		brge .L2
 225 0108 E12C      		mov r14,__zero_reg__
 226 010a FF24      		clr r15
 227 010c FA94      		dec r15
 228 010e DFE7      		ldi r29,lo8(127)
 229 0110 C7E4      		ldi r28,lo8(71)
 230               	.L2:
 231               		.loc 1 296 0 is_stmt 0 discriminator 4
 232 0112 A701      		movw r20,r14
 233 0114 6D2F      		mov r22,r29
 234 0116 7C2F      		mov r23,r28
 235 0118 F601      		movw r30,r12
 236 011a 4083      		st Z,r20
 237 011c 5183      		std Z+1,r21
 238 011e 6283      		std Z+2,r22
 239 0120 7383      		std Z+3,r23
 240               	.LBB152:
 297:../src/localization.c **** 		for(uint8_t j=i+1;j<3;j++){
 241               		.loc 1 297 0 is_stmt 1 discriminator 4
 242 0122 2394      		inc r2
 243               	.LVL11:
 244 0124 F3E0      		ldi r31,lo8(3)
 245 0126 2F16      		cp r2,r31
 246 0128 01F4      		brne .+2
 247 012a 00C0      		rjmp .L10
 248               		.loc 1 297 0 is_stmt 0
 249 012c 322C      		mov r3,r2
 250 012e 7501      		movw r14,r10
 251 0130 EE0C      		lsl r14
 252 0132 FF1C      		rol r15
 298:../src/localization.c **** 			(*P)[i][j] = ((*P)[i][j] > 32767) ? 32767 : ( ((*P)[i][j]<-32768) ? -32768 : (*P)[i][j] );
 253               		.loc 1 298 0 is_stmt 1
 254 0134 EA0C      		add r14,r10
 255 0136 FB1C      		adc r15,r11
 256 0138 00C0      		rjmp .L9
 257               	.LVL12:
 258               	.L19:
 259               		.loc 1 298 0 is_stmt 0 discriminator 2
 260 013a 20E0      		ldi r18,0
 261 013c 30E0      		ldi r19,0
 262 013e 40E0      		ldi r20,0
 263 0140 57EC      		ldi r21,lo8(-57)
 264 0142 C301      		movw r24,r6
 265 0144 B201      		movw r22,r4
 266 0146 0E94 0000 		call __ltsf2
 267               	.LVL13:
 268 014a 87FF      		sbrs r24,7
 269 014c 00C0      		rjmp .L7
 270               		.loc 1 298 0
 271 014e 412C      		mov r4,__zero_reg__
 272 0150 512C      		mov r5,__zero_reg__
 273 0152 612C      		mov r6,__zero_reg__
 274 0154 27EC      		ldi r18,lo8(-57)
 275 0156 722E      		mov r7,r18
 276               	.L7:
 277               		.loc 1 298 0 discriminator 8
 278 0158 CE0D      		add r28,r14
 279 015a DF1D      		adc r29,r15
 280 015c CC0F      		lsl r28
 281 015e DD1F      		rol r29
 282 0160 CC0F      		lsl r28
 283 0162 DD1F      		rol r29
 284 0164 C00F      		add r28,r16
 285 0166 D11F      		adc r29,r17
 286 0168 4882      		st Y,r4
 287 016a 5982      		std Y+1,r5
 288 016c 6A82      		std Y+2,r6
 289 016e 7B82      		std Y+3,r7
 297:../src/localization.c **** 		for(uint8_t j=i+1;j<3;j++){
 290               		.loc 1 297 0 is_stmt 1 discriminator 8
 291 0170 3394      		inc r3
 292               	.LVL14:
 293 0172 83E0      		ldi r24,lo8(3)
 294 0174 3816      		cp r3,r24
 295 0176 01F0      		breq .L10
 296               	.L9:
 297               		.loc 1 298 0
 298 0178 C32D      		mov r28,r3
 299 017a D0E0      		ldi r29,0
 300 017c F701      		movw r30,r14
 301 017e EC0F      		add r30,r28
 302 0180 FD1F      		adc r31,r29
 303 0182 EE0F      		lsl r30
 304 0184 FF1F      		rol r31
 305 0186 EE0F      		lsl r30
 306 0188 FF1F      		rol r31
 307 018a E00F      		add r30,r16
 308 018c F11F      		adc r31,r17
 309 018e 4080      		ld r4,Z
 310 0190 5180      		ldd r5,Z+1
 311 0192 6280      		ldd r6,Z+2
 312 0194 7380      		ldd r7,Z+3
 313 0196 20E0      		ldi r18,0
 314 0198 3EEF      		ldi r19,lo8(-2)
 315 019a 4FEF      		ldi r20,lo8(-1)
 316 019c 56E4      		ldi r21,lo8(70)
 317 019e C301      		movw r24,r6
 318 01a0 B201      		movw r22,r4
 319 01a2 0E94 0000 		call __gtsf2
 320               	.LVL15:
 321 01a6 1816      		cp __zero_reg__,r24
 322 01a8 04F4      		brge .L19
 323 01aa 412C      		mov r4,__zero_reg__
 324 01ac 9EEF      		ldi r25,lo8(-2)
 325 01ae 592E      		mov r5,r25
 326 01b0 6624      		clr r6
 327 01b2 6A94      		dec r6
 328 01b4 96E4      		ldi r25,lo8(70)
 329 01b6 792E      		mov r7,r25
 330 01b8 00C0      		rjmp .L7
 331               	.LVL16:
 332               	.L10:
 333 01ba 8FEF      		ldi r24,-1
 334 01bc A81A      		sub r10,r24
 335 01be B80A      		sbc r11,r24
 336 01c0 E0E1      		ldi r30,16
 337 01c2 CE0E      		add r12,r30
 338 01c4 D11C      		adc r13,__zero_reg__
 339               	.LBE152:
 295:../src/localization.c **** 		(*P)[i][i] = ((*P)[i][i] > 65535) ? 65535 : (*P)[i][i];
 340               		.loc 1 295 0
 341 01c6 F3E0      		ldi r31,3
 342 01c8 AF16      		cp r10,r31
 343 01ca B104      		cpc r11,__zero_reg__
 344 01cc 01F0      		breq .L20
 345 01ce F601      		movw r30,r12
 346 01d0 E080      		ld r14,Z
 347 01d2 F180      		ldd r15,Z+1
 348 01d4 D281      		ldd r29,Z+2
 349 01d6 C381      		ldd r28,Z+3
 350 01d8 00C0      		rjmp .L11
 351               	.L20:
 352               	.LBE151:
 299:../src/localization.c **** 		}
 300:../src/localization.c **** 	}
 301:../src/localization.c **** 	(*covar)[0].u = (uint16_t)((*P)[0][0]);
 353               		.loc 1 301 0
 354 01da F801      		movw r30,r16
 355 01dc 6081      		ld r22,Z
 356 01de 7181      		ldd r23,Z+1
 357 01e0 8281      		ldd r24,Z+2
 358 01e2 9381      		ldd r25,Z+3
 359 01e4 0E94 0000 		call __fixunssfsi
 360               	.LVL17:
 361 01e8 F401      		movw r30,r8
 362 01ea 6083      		st Z,r22
 363 01ec 7183      		std Z+1,r23
 302:../src/localization.c **** 	(*covar)[1].d =  (int16_t)((*P)[0][1]);
 364               		.loc 1 302 0
 365 01ee F801      		movw r30,r16
 366 01f0 6481      		ldd r22,Z+4
 367 01f2 7581      		ldd r23,Z+5
 368 01f4 8681      		ldd r24,Z+6
 369 01f6 9781      		ldd r25,Z+7
 370 01f8 0E94 0000 		call __fixsfsi
 371               	.LVL18:
 372 01fc F401      		movw r30,r8
 373 01fe 6283      		std Z+2,r22
 374 0200 7383      		std Z+3,r23
 303:../src/localization.c **** 	(*covar)[2].d =  (int16_t)((*P)[0][2]);
 375               		.loc 1 303 0
 376 0202 F801      		movw r30,r16
 377 0204 6085      		ldd r22,Z+8
 378 0206 7185      		ldd r23,Z+9
 379 0208 8285      		ldd r24,Z+10
 380 020a 9385      		ldd r25,Z+11
 381 020c 0E94 0000 		call __fixsfsi
 382               	.LVL19:
 383 0210 F401      		movw r30,r8
 384 0212 6483      		std Z+4,r22
 385 0214 7583      		std Z+5,r23
 304:../src/localization.c **** 	(*covar)[3].u = (uint16_t)((*P)[1][1]);
 386               		.loc 1 304 0
 387 0216 F801      		movw r30,r16
 388 0218 6089      		ldd r22,Z+16
 389 021a 7189      		ldd r23,Z+17
 390 021c 8289      		ldd r24,Z+18
 391 021e 9389      		ldd r25,Z+19
 392 0220 0E94 0000 		call __fixunssfsi
 393               	.LVL20:
 394 0224 F401      		movw r30,r8
 395 0226 6683      		std Z+6,r22
 396 0228 7783      		std Z+7,r23
 305:../src/localization.c **** 	(*covar)[4].d =  (int16_t)((*P)[1][2]);
 397               		.loc 1 305 0
 398 022a F801      		movw r30,r16
 399 022c 6489      		ldd r22,Z+20
 400 022e 7589      		ldd r23,Z+21
 401 0230 8689      		ldd r24,Z+22
 402 0232 9789      		ldd r25,Z+23
 403 0234 0E94 0000 		call __fixsfsi
 404               	.LVL21:
 405 0238 F401      		movw r30,r8
 406 023a 6087      		std Z+8,r22
 407 023c 7187      		std Z+9,r23
 306:../src/localization.c **** 	(*covar)[5].u = (uint16_t)((*P)[2][2]);
 408               		.loc 1 306 0
 409 023e F801      		movw r30,r16
 410 0240 60A1      		ldd r22,Z+32
 411 0242 71A1      		ldd r23,Z+33
 412 0244 82A1      		ldd r24,Z+34
 413 0246 93A1      		ldd r25,Z+35
 414 0248 0E94 0000 		call __fixunssfsi
 415               	.LVL22:
 416 024c F401      		movw r30,r8
 417 024e 6287      		std Z+10,r22
 418 0250 7387      		std Z+11,r23
 419               	/* epilogue start */
 307:../src/localization.c **** }
 420               		.loc 1 307 0
 421 0252 DF91      		pop r29
 422 0254 CF91      		pop r28
 423 0256 1F91      		pop r17
 424 0258 0F91      		pop r16
 425               	.LVL23:
 426 025a FF90      		pop r15
 427 025c EF90      		pop r14
 428 025e DF90      		pop r13
 429 0260 CF90      		pop r12
 430 0262 BF90      		pop r11
 431 0264 AF90      		pop r10
 432 0266 9F90      		pop r9
 433 0268 8F90      		pop r8
 434               	.LVL24:
 435 026a 7F90      		pop r7
 436 026c 6F90      		pop r6
 437 026e 5F90      		pop r5
 438 0270 4F90      		pop r4
 439 0272 3F90      		pop r3
 440 0274 2F90      		pop r2
 441               	.LVL25:
 442 0276 0895      		ret
 443               		.cfi_endproc
 444               	.LFE75:
 446               	.global	__floatsisf
 447               	.global	__floatunsisf
 448               		.section	.text.decompressP,"ax",@progbits
 450               	decompressP:
 451               	.LFB76:
 308:../src/localization.c **** 
 309:../src/localization.c **** //Takes DensePosCovar covar and unpacks it to a covariance matrix P.
 310:../src/localization.c **** static void decompressP(Matrix* P, DensePosCovar* covar){
 452               		.loc 1 310 0
 453               		.cfi_startproc
 454               	.LVL26:
 455 0000 4F92      		push r4
 456               	.LCFI18:
 457               		.cfi_def_cfa_offset 4
 458               		.cfi_offset 4, -3
 459 0002 5F92      		push r5
 460               	.LCFI19:
 461               		.cfi_def_cfa_offset 5
 462               		.cfi_offset 5, -4
 463 0004 6F92      		push r6
 464               	.LCFI20:
 465               		.cfi_def_cfa_offset 6
 466               		.cfi_offset 6, -5
 467 0006 7F92      		push r7
 468               	.LCFI21:
 469               		.cfi_def_cfa_offset 7
 470               		.cfi_offset 7, -6
 471 0008 8F92      		push r8
 472               	.LCFI22:
 473               		.cfi_def_cfa_offset 8
 474               		.cfi_offset 8, -7
 475 000a 9F92      		push r9
 476               	.LCFI23:
 477               		.cfi_def_cfa_offset 9
 478               		.cfi_offset 9, -8
 479 000c AF92      		push r10
 480               	.LCFI24:
 481               		.cfi_def_cfa_offset 10
 482               		.cfi_offset 10, -9
 483 000e BF92      		push r11
 484               	.LCFI25:
 485               		.cfi_def_cfa_offset 11
 486               		.cfi_offset 11, -10
 487 0010 CF92      		push r12
 488               	.LCFI26:
 489               		.cfi_def_cfa_offset 12
 490               		.cfi_offset 12, -11
 491 0012 DF92      		push r13
 492               	.LCFI27:
 493               		.cfi_def_cfa_offset 13
 494               		.cfi_offset 13, -12
 495 0014 EF92      		push r14
 496               	.LCFI28:
 497               		.cfi_def_cfa_offset 14
 498               		.cfi_offset 14, -13
 499 0016 FF92      		push r15
 500               	.LCFI29:
 501               		.cfi_def_cfa_offset 15
 502               		.cfi_offset 15, -14
 503 0018 0F93      		push r16
 504               	.LCFI30:
 505               		.cfi_def_cfa_offset 16
 506               		.cfi_offset 16, -15
 507 001a 1F93      		push r17
 508               	.LCFI31:
 509               		.cfi_def_cfa_offset 17
 510               		.cfi_offset 17, -16
 511 001c CF93      		push r28
 512               	.LCFI32:
 513               		.cfi_def_cfa_offset 18
 514               		.cfi_offset 28, -17
 515 001e DF93      		push r29
 516               	.LCFI33:
 517               		.cfi_def_cfa_offset 19
 518               		.cfi_offset 29, -18
 519 0020 CDB7      		in r28,__SP_L__
 520 0022 DEB7      		in r29,__SP_H__
 521               	.LCFI34:
 522               		.cfi_def_cfa_register 28
 523 0024 2A97      		sbiw r28,10
 524               	.LCFI35:
 525               		.cfi_def_cfa_offset 29
 526 0026 CDBF      		out __SP_L__,r28
 527 0028 DEBF      		out __SP_H__,r29
 528               	/* prologue: function */
 529               	/* frame size = 10 */
 530               	/* stack size = 26 */
 531               	.L__stack_usage = 26
 532 002a 8987      		std Y+9,r24
 533 002c 9A87      		std Y+10,r25
 534 002e 8B01      		movw r16,r22
 311:../src/localization.c **** 	(*P)[0][0] = (*covar)[0].u;    (*P)[0][1] = (*covar)[1].d;    (*P)[0][2] = (*covar)[2].d;
 535               		.loc 1 311 0
 536 0030 FB01      		movw r30,r22
 537 0032 6281      		ldd r22,Z+2
 538 0034 7381      		ldd r23,Z+3
 539               	.LVL27:
 540 0036 072E      		mov __tmp_reg__,r23
 541 0038 000C      		lsl r0
 542 003a 880B      		sbc r24,r24
 543 003c 990B      		sbc r25,r25
 544 003e 0E94 0000 		call __floatsisf
 545               	.LVL28:
 546 0042 2B01      		movw r4,r22
 547 0044 3C01      		movw r6,r24
 548 0046 F801      		movw r30,r16
 549 0048 6481      		ldd r22,Z+4
 550 004a 7581      		ldd r23,Z+5
 551 004c 072E      		mov __tmp_reg__,r23
 552 004e 000C      		lsl r0
 553 0050 880B      		sbc r24,r24
 554 0052 990B      		sbc r25,r25
 555 0054 0E94 0000 		call __floatsisf
 556               	.LVL29:
 557 0058 4B01      		movw r8,r22
 558 005a 5C01      		movw r10,r24
 312:../src/localization.c **** 	(*P)[1][1] = (*covar)[3].u;    (*P)[1][2] = (*covar)[4].d;
 559               		.loc 1 312 0
 560 005c F801      		movw r30,r16
 561 005e 6681      		ldd r22,Z+6
 562 0060 7781      		ldd r23,Z+7
 563 0062 80E0      		ldi r24,0
 564 0064 90E0      		ldi r25,0
 565 0066 0E94 0000 		call __floatunsisf
 566               	.LVL30:
 567 006a 6B01      		movw r12,r22
 568 006c 7C01      		movw r14,r24
 569 006e F801      		movw r30,r16
 570 0070 6085      		ldd r22,Z+8
 571 0072 7185      		ldd r23,Z+9
 572 0074 072E      		mov __tmp_reg__,r23
 573 0076 000C      		lsl r0
 574 0078 880B      		sbc r24,r24
 575 007a 990B      		sbc r25,r25
 576 007c 0E94 0000 		call __floatsisf
 577               	.LVL31:
 578 0080 6983      		std Y+1,r22
 579 0082 7A83      		std Y+2,r23
 580 0084 8B83      		std Y+3,r24
 581 0086 9C83      		std Y+4,r25
 313:../src/localization.c **** 	(*P)[2][2] = (*covar)[5].u;
 582               		.loc 1 313 0
 583 0088 F801      		movw r30,r16
 584 008a 6285      		ldd r22,Z+10
 585 008c 7385      		ldd r23,Z+11
 586 008e 80E0      		ldi r24,0
 587 0090 90E0      		ldi r25,0
 588 0092 0E94 0000 		call __floatunsisf
 589               	.LVL32:
 590 0096 6D83      		std Y+5,r22
 591 0098 7E83      		std Y+6,r23
 592 009a 8F83      		std Y+7,r24
 593 009c 9887      		std Y+8,r25
 314:../src/localization.c **** 
 315:../src/localization.c **** 	(*P)[0][0] = 8*(*P)[0][0];    (*P)[0][1] = 16*(*P)[0][1];    (*P)[0][2] = (1/16.0 )*(*P)[0][2];
 594               		.loc 1 315 0
 595 009e F801      		movw r30,r16
 596 00a0 6081      		ld r22,Z
 597 00a2 7181      		ldd r23,Z+1
 598 00a4 80E0      		ldi r24,0
 599 00a6 90E0      		ldi r25,0
 600 00a8 0E94 0000 		call __floatunsisf
 601               	.LVL33:
 602 00ac 20E0      		ldi r18,0
 603 00ae 30E0      		ldi r19,0
 604 00b0 40E0      		ldi r20,0
 605 00b2 51E4      		ldi r21,lo8(65)
 606 00b4 0E94 0000 		call __mulsf3
 607               	.LVL34:
 608 00b8 E985      		ldd r30,Y+9
 609 00ba FA85      		ldd r31,Y+10
 610 00bc 6083      		st Z,r22
 611 00be 7183      		std Z+1,r23
 612 00c0 8283      		std Z+2,r24
 613 00c2 9383      		std Z+3,r25
 614 00c4 20E0      		ldi r18,0
 615 00c6 30E0      		ldi r19,0
 616 00c8 40E8      		ldi r20,lo8(-128)
 617 00ca 51E4      		ldi r21,lo8(65)
 618 00cc C301      		movw r24,r6
 619 00ce B201      		movw r22,r4
 620 00d0 0E94 0000 		call __mulsf3
 621               	.LVL35:
 622 00d4 2B01      		movw r4,r22
 623 00d6 3C01      		movw r6,r24
 624 00d8 E985      		ldd r30,Y+9
 625 00da FA85      		ldd r31,Y+10
 626 00dc 6483      		std Z+4,r22
 627 00de 7583      		std Z+5,r23
 628 00e0 8683      		std Z+6,r24
 629 00e2 9783      		std Z+7,r25
 630 00e4 20E0      		ldi r18,0
 631 00e6 30E0      		ldi r19,0
 632 00e8 40E8      		ldi r20,lo8(-128)
 633 00ea 5DE3      		ldi r21,lo8(61)
 634 00ec C501      		movw r24,r10
 635 00ee B401      		movw r22,r8
 636 00f0 0E94 0000 		call __mulsf3
 637               	.LVL36:
 638 00f4 4B01      		movw r8,r22
 639 00f6 5C01      		movw r10,r24
 640 00f8 E985      		ldd r30,Y+9
 641 00fa FA85      		ldd r31,Y+10
 642 00fc 6087      		std Z+8,r22
 643 00fe 7187      		std Z+9,r23
 644 0100 8287      		std Z+10,r24
 645 0102 9387      		std Z+11,r25
 316:../src/localization.c **** 	(*P)[1][0] =   (*P)[0][1];    (*P)[1][1] =  8*(*P)[1][1];    (*P)[1][2] = (1/16.0 )*(*P)[1][2];
 646               		.loc 1 316 0
 647 0104 4486      		std Z+12,r4
 648 0106 5586      		std Z+13,r5
 649 0108 6686      		std Z+14,r6
 650 010a 7786      		std Z+15,r7
 651 010c 20E0      		ldi r18,0
 652 010e 30E0      		ldi r19,0
 653 0110 40E0      		ldi r20,0
 654 0112 51E4      		ldi r21,lo8(65)
 655 0114 C701      		movw r24,r14
 656 0116 B601      		movw r22,r12
 657 0118 0E94 0000 		call __mulsf3
 658               	.LVL37:
 659 011c E985      		ldd r30,Y+9
 660 011e FA85      		ldd r31,Y+10
 661 0120 608B      		std Z+16,r22
 662 0122 718B      		std Z+17,r23
 663 0124 828B      		std Z+18,r24
 664 0126 938B      		std Z+19,r25
 665 0128 20E0      		ldi r18,0
 666 012a 30E0      		ldi r19,0
 667 012c 40E8      		ldi r20,lo8(-128)
 668 012e 5DE3      		ldi r21,lo8(61)
 669 0130 6981      		ldd r22,Y+1
 670 0132 7A81      		ldd r23,Y+2
 671 0134 8B81      		ldd r24,Y+3
 672 0136 9C81      		ldd r25,Y+4
 673 0138 0E94 0000 		call __mulsf3
 674               	.LVL38:
 675 013c E985      		ldd r30,Y+9
 676 013e FA85      		ldd r31,Y+10
 677 0140 648B      		std Z+20,r22
 678 0142 758B      		std Z+21,r23
 679 0144 868B      		std Z+22,r24
 680 0146 978B      		std Z+23,r25
 317:../src/localization.c **** 	(*P)[2][0] =   (*P)[0][2];    (*P)[2][1] =    (*P)[1][2];    (*P)[2][2] = (1/256.0)*(*P)[2][2];
 681               		.loc 1 317 0
 682 0148 808E      		std Z+24,r8
 683 014a 918E      		std Z+25,r9
 684 014c A28E      		std Z+26,r10
 685 014e B38E      		std Z+27,r11
 686 0150 648F      		std Z+28,r22
 687 0152 758F      		std Z+29,r23
 688 0154 868F      		std Z+30,r24
 689 0156 978F      		std Z+31,r25
 690 0158 20E0      		ldi r18,0
 691 015a 30E0      		ldi r19,0
 692 015c 40E8      		ldi r20,lo8(-128)
 693 015e 5BE3      		ldi r21,lo8(59)
 694 0160 6D81      		ldd r22,Y+5
 695 0162 7E81      		ldd r23,Y+6
 696 0164 8F81      		ldd r24,Y+7
 697 0166 9885      		ldd r25,Y+8
 698 0168 0E94 0000 		call __mulsf3
 699               	.LVL39:
 700 016c E985      		ldd r30,Y+9
 701 016e FA85      		ldd r31,Y+10
 702 0170 60A3      		std Z+32,r22
 703 0172 71A3      		std Z+33,r23
 704 0174 82A3      		std Z+34,r24
 705 0176 93A3      		std Z+35,r25
 706               	/* epilogue start */
 318:../src/localization.c **** }
 707               		.loc 1 318 0
 708 0178 2A96      		adiw r28,10
 709 017a CDBF      		out __SP_L__,r28
 710 017c DEBF      		out __SP_H__,r29
 711 017e DF91      		pop r29
 712 0180 CF91      		pop r28
 713 0182 1F91      		pop r17
 714 0184 0F91      		pop r16
 715               	.LVL40:
 716 0186 FF90      		pop r15
 717 0188 EF90      		pop r14
 718 018a DF90      		pop r13
 719 018c CF90      		pop r12
 720 018e BF90      		pop r11
 721 0190 AF90      		pop r10
 722 0192 9F90      		pop r9
 723 0194 8F90      		pop r8
 724 0196 7F90      		pop r7
 725 0198 6F90      		pop r6
 726 019a 5F90      		pop r5
 727 019c 4F90      		pop r4
 728 019e 0895      		ret
 729               		.cfi_endproc
 730               	.LFE76:
 732               		.section	.text.calcRelativePose,"ax",@progbits
 734               	calcRelativePose:
 735               	.LFB71:
 252:../src/localization.c **** 	(*pose)[0] = (*meas)[0] * cos((*meas)[1]);
 736               		.loc 1 252 0
 737               		.cfi_startproc
 738               	.LVL41:
 739 0000 CF92      		push r12
 740               	.LCFI36:
 741               		.cfi_def_cfa_offset 4
 742               		.cfi_offset 12, -3
 743 0002 DF92      		push r13
 744               	.LCFI37:
 745               		.cfi_def_cfa_offset 5
 746               		.cfi_offset 13, -4
 747 0004 EF92      		push r14
 748               	.LCFI38:
 749               		.cfi_def_cfa_offset 6
 750               		.cfi_offset 14, -5
 751 0006 FF92      		push r15
 752               	.LCFI39:
 753               		.cfi_def_cfa_offset 7
 754               		.cfi_offset 15, -6
 755 0008 0F93      		push r16
 756               	.LCFI40:
 757               		.cfi_def_cfa_offset 8
 758               		.cfi_offset 16, -7
 759 000a 1F93      		push r17
 760               	.LCFI41:
 761               		.cfi_def_cfa_offset 9
 762               		.cfi_offset 17, -8
 763 000c CF93      		push r28
 764               	.LCFI42:
 765               		.cfi_def_cfa_offset 10
 766               		.cfi_offset 28, -9
 767 000e DF93      		push r29
 768               	.LCFI43:
 769               		.cfi_def_cfa_offset 11
 770               		.cfi_offset 29, -10
 771               	/* prologue: function */
 772               	/* frame size = 0 */
 773               	/* stack size = 8 */
 774               	.L__stack_usage = 8
 775 0010 8C01      		movw r16,r24
 776 0012 EB01      		movw r28,r22
 253:../src/localization.c **** 	(*pose)[1] = (*meas)[0] * sin((*meas)[1]);
 777               		.loc 1 253 0
 778 0014 CC80      		ldd r12,Y+4
 779 0016 DD80      		ldd r13,Y+5
 780 0018 EE80      		ldd r14,Y+6
 781 001a FF80      		ldd r15,Y+7
 782 001c C701      		movw r24,r14
 783 001e B601      		movw r22,r12
 784               	.LVL42:
 785 0020 0E94 0000 		call cos
 786               	.LVL43:
 787 0024 9B01      		movw r18,r22
 788 0026 AC01      		movw r20,r24
 789 0028 6881      		ld r22,Y
 790 002a 7981      		ldd r23,Y+1
 791 002c 8A81      		ldd r24,Y+2
 792 002e 9B81      		ldd r25,Y+3
 793 0030 0E94 0000 		call __mulsf3
 794               	.LVL44:
 795 0034 F801      		movw r30,r16
 796 0036 6083      		st Z,r22
 797 0038 7183      		std Z+1,r23
 798 003a 8283      		std Z+2,r24
 799 003c 9383      		std Z+3,r25
 254:../src/localization.c **** 	(*pose)[2] = (*meas)[2];
 800               		.loc 1 254 0
 801 003e C701      		movw r24,r14
 802 0040 B601      		movw r22,r12
 803 0042 0E94 0000 		call sin
 804               	.LVL45:
 805 0046 9B01      		movw r18,r22
 806 0048 AC01      		movw r20,r24
 807 004a 6881      		ld r22,Y
 808 004c 7981      		ldd r23,Y+1
 809 004e 8A81      		ldd r24,Y+2
 810 0050 9B81      		ldd r25,Y+3
 811 0052 0E94 0000 		call __mulsf3
 812               	.LVL46:
 813 0056 F801      		movw r30,r16
 814 0058 6483      		std Z+4,r22
 815 005a 7583      		std Z+5,r23
 816 005c 8683      		std Z+6,r24
 817 005e 9783      		std Z+7,r25
 255:../src/localization.c **** }
 818               		.loc 1 255 0
 819 0060 8885      		ldd r24,Y+8
 820 0062 9985      		ldd r25,Y+9
 821 0064 AA85      		ldd r26,Y+10
 822 0066 BB85      		ldd r27,Y+11
 823 0068 8087      		std Z+8,r24
 824 006a 9187      		std Z+9,r25
 825 006c A287      		std Z+10,r26
 826 006e B387      		std Z+11,r27
 827               	/* epilogue start */
 256:../src/localization.c **** 
 828               		.loc 1 256 0
 829 0070 DF91      		pop r29
 830 0072 CF91      		pop r28
 831               	.LVL47:
 832 0074 1F91      		pop r17
 833 0076 0F91      		pop r16
 834               	.LVL48:
 835 0078 FF90      		pop r15
 836 007a EF90      		pop r14
 837 007c DF90      		pop r13
 838 007e CF90      		pop r12
 839 0080 0895      		ret
 840               		.cfi_endproc
 841               	.LFE71:
 843               	.global	__divsf3
 844               	.global	__gesf2
 845               	.global	__addsf3
 846               	.global	__subsf3
 847               		.section	.rodata
 848               	.LC0:
 849 0000 00        		.byte	0
 850 0001 00        		.byte	0
 851 0002 80        		.byte	-128
 852 0003 3F        		.byte	63
 853 0004 00        		.byte	0
 854 0005 00        		.byte	0
 855 0006 00        		.byte	0
 856 0007 00        		.byte	0
 857 0008 00        		.byte	0
 858 0009 00        		.byte	0
 859 000a 00        		.byte	0
 860 000b 00        		.byte	0
 861 000c 00        		.byte	0
 862 000d 00        		.byte	0
 863 000e 00        		.byte	0
 864 000f 00        		.byte	0
 865 0010 00        		.byte	0
 866 0011 00        		.byte	0
 867 0012 80        		.byte	-128
 868 0013 3F        		.byte	63
 869 0014 00        		.byte	0
 870 0015 00        		.byte	0
 871 0016 00        		.byte	0
 872 0017 00        		.byte	0
 873 0018 00        		.byte	0
 874 0019 00        		.byte	0
 875 001a 00        		.byte	0
 876 001b 00        		.byte	0
 877 001c 00        		.byte	0
 878 001d 00        		.byte	0
 879 001e 00        		.byte	0
 880 001f 00        		.byte	0
 881 0020 00        		.byte	0
 882 0021 00        		.byte	0
 883 0022 80        		.byte	-128
 884 0023 3F        		.byte	63
 885               		.section	.text.updatePos,"ax",@progbits
 887               	updatePos:
 888               	.LFB69:
 174:../src/localization.c **** 	Vector xMe = {myPos.x, myPos.y, deg_to_rad(myPos.o)};
 889               		.loc 1 174 0
 890               		.cfi_startproc
 891               	.LVL49:
 892 0000 2F92      		push r2
 893               	.LCFI44:
 894               		.cfi_def_cfa_offset 4
 895               		.cfi_offset 2, -3
 896 0002 3F92      		push r3
 897               	.LCFI45:
 898               		.cfi_def_cfa_offset 5
 899               		.cfi_offset 3, -4
 900 0004 4F92      		push r4
 901               	.LCFI46:
 902               		.cfi_def_cfa_offset 6
 903               		.cfi_offset 4, -5
 904 0006 5F92      		push r5
 905               	.LCFI47:
 906               		.cfi_def_cfa_offset 7
 907               		.cfi_offset 5, -6
 908 0008 6F92      		push r6
 909               	.LCFI48:
 910               		.cfi_def_cfa_offset 8
 911               		.cfi_offset 6, -7
 912 000a 7F92      		push r7
 913               	.LCFI49:
 914               		.cfi_def_cfa_offset 9
 915               		.cfi_offset 7, -8
 916 000c 8F92      		push r8
 917               	.LCFI50:
 918               		.cfi_def_cfa_offset 10
 919               		.cfi_offset 8, -9
 920 000e 9F92      		push r9
 921               	.LCFI51:
 922               		.cfi_def_cfa_offset 11
 923               		.cfi_offset 9, -10
 924 0010 AF92      		push r10
 925               	.LCFI52:
 926               		.cfi_def_cfa_offset 12
 927               		.cfi_offset 10, -11
 928 0012 BF92      		push r11
 929               	.LCFI53:
 930               		.cfi_def_cfa_offset 13
 931               		.cfi_offset 11, -12
 932 0014 CF92      		push r12
 933               	.LCFI54:
 934               		.cfi_def_cfa_offset 14
 935               		.cfi_offset 12, -13
 936 0016 DF92      		push r13
 937               	.LCFI55:
 938               		.cfi_def_cfa_offset 15
 939               		.cfi_offset 13, -14
 940 0018 EF92      		push r14
 941               	.LCFI56:
 942               		.cfi_def_cfa_offset 16
 943               		.cfi_offset 14, -15
 944 001a FF92      		push r15
 945               	.LCFI57:
 946               		.cfi_def_cfa_offset 17
 947               		.cfi_offset 15, -16
 948 001c 0F93      		push r16
 949               	.LCFI58:
 950               		.cfi_def_cfa_offset 18
 951               		.cfi_offset 16, -17
 952 001e 1F93      		push r17
 953               	.LCFI59:
 954               		.cfi_def_cfa_offset 19
 955               		.cfi_offset 17, -18
 956 0020 CF93      		push r28
 957               	.LCFI60:
 958               		.cfi_def_cfa_offset 20
 959               		.cfi_offset 28, -19
 960 0022 DF93      		push r29
 961               	.LCFI61:
 962               		.cfi_def_cfa_offset 21
 963               		.cfi_offset 29, -20
 964 0024 CDB7      		in r28,__SP_L__
 965 0026 DEB7      		in r29,__SP_H__
 966               	.LCFI62:
 967               		.cfi_def_cfa_register 28
 968 0028 C85F      		subi r28,-8
 969 002a D140      		sbci r29,1
 970               	.LCFI63:
 971               		.cfi_def_cfa_offset 525
 972 002c CDBF      		out __SP_L__,r28
 973 002e DEBF      		out __SP_H__,r29
 974               	/* prologue: function */
 975               	/* frame size = 504 */
 976               	/* stack size = 522 */
 977               	.L__stack_usage = 522
 978 0030 8C01      		movw r16,r24
 979 0032 7B01      		movw r14,r22
 175:../src/localization.c **** 	if(!POS_DEFINED(pos)){
 980               		.loc 1 175 0
 981 0034 6091 0000 		lds r22,myPos
 982 0038 7091 0000 		lds r23,myPos+1
 983               	.LVL50:
 984 003c 072E      		mov __tmp_reg__,r23
 985 003e 000C      		lsl r0
 986 0040 880B      		sbc r24,r24
 987 0042 990B      		sbc r25,r25
 988 0044 0E94 0000 		call __floatsisf
 989               	.LVL51:
 990 0048 C351      		subi r28,lo8(-493)
 991 004a DE4F      		sbci r29,hi8(-493)
 992 004c 6883      		st Y,r22
 993 004e 7983      		std Y+1,r23
 994 0050 8A83      		std Y+2,r24
 995 0052 9B83      		std Y+3,r25
 996 0054 CD5E      		subi r28,lo8(493)
 997 0056 D140      		sbci r29,hi8(493)
 998 0058 6091 0000 		lds r22,myPos+2
 999 005c 7091 0000 		lds r23,myPos+2+1
 1000 0060 072E      		mov __tmp_reg__,r23
 1001 0062 000C      		lsl r0
 1002 0064 880B      		sbc r24,r24
 1003 0066 990B      		sbc r25,r25
 1004 0068 0E94 0000 		call __floatsisf
 1005               	.LVL52:
 1006 006c CF50      		subi r28,lo8(-497)
 1007 006e DE4F      		sbci r29,hi8(-497)
 1008 0070 6883      		st Y,r22
 1009 0072 7983      		std Y+1,r23
 1010 0074 8A83      		std Y+2,r24
 1011 0076 9B83      		std Y+3,r25
 1012 0078 C15F      		subi r28,lo8(497)
 1013 007a D140      		sbci r29,hi8(497)
 1014               	.LVL53:
 1015               	.LBB180:
 1016               	.LBB181:
 1017               		.file 2 "../include/range_algs.h"
   1:../include/range_algs.h **** #pragma once
   2:../include/range_algs.h **** 
   3:../include/range_algs.h **** #include <avr/io.h>
   4:../include/range_algs.h **** #include <math.h>
   5:../include/range_algs.h **** #include <avr/pgmspace.h>
   6:../include/range_algs.h **** 
   7:../include/range_algs.h **** //#include "droplet_init.h"
   8:../include/range_algs.h **** #include "scheduler.h"
   9:../include/range_algs.h **** #include "ir_sensor.h"
  10:../include/range_algs.h **** #include "rgb_led.h"
  11:../include/range_algs.h **** #include "ir_comm.h"
  12:../include/range_algs.h **** #include "i2c.h"
  13:../include/range_algs.h **** #include "delay_x.h"
  14:../include/range_algs.h **** 
  15:../include/range_algs.h **** #define DROPLET_RADIUS 22U  //mm
  16:../include/range_algs.h **** #define DROPLET_RADIUS_SQ 484U //mm
  17:../include/range_algs.h **** #define DROPLET_DIAMETER 44 //mm
  18:../include/range_algs.h **** 
  19:../include/range_algs.h **** //Synchronization Timing Constants:
  20:../include/range_algs.h **** #define POST_BROADCAST_DELAY			30U
  21:../include/range_algs.h **** #define TIME_FOR_SET_IR_POWERS			2U
  22:../include/range_algs.h **** #define TIME_FOR_IR_MEAS				12U
  23:../include/range_algs.h **** #define TIME_FOR_GET_IR_VALS			16U
  24:../include/range_algs.h **** #define DELAY_BETWEEN_RB_TRANSMISSIONS	10U
  25:../include/range_algs.h **** 
  26:../include/range_algs.h **** //Constants for rnb processing:
  27:../include/range_algs.h **** #define MIN_MATRIX_SUM_THRESH	115
  28:../include/range_algs.h **** #define ELEVEN_SQRT3		   19.0525588833f
  29:../include/range_algs.h **** #define SQRT3_OVER2				0.8660254038f
  30:../include/range_algs.h **** #define RNB_DUR					220
  31:../include/range_algs.h **** 
  32:../include/range_algs.h **** typedef struct list_el {
  33:../include/range_algs.h **** 	float Rx;
  34:../include/range_algs.h **** 	float Ry;
  35:../include/range_algs.h **** 	float rijMag;
  36:../include/range_algs.h **** 	uint8_t e;
  37:../include/range_algs.h **** 	uint8_t s;
  38:../include/range_algs.h **** 	struct list_el *next;
  39:../include/range_algs.h **** } rVectorNode;
  40:../include/range_algs.h **** 
  41:../include/range_algs.h **** typedef struct rnb_data {
  42:../include/range_algs.h **** 	uint16_t range;
  43:../include/range_algs.h **** 	int16_t bearing;
  44:../include/range_algs.h **** 	int16_t heading;
  45:../include/range_algs.h **** 	id_t id;
  46:../include/range_algs.h **** } rnb;
  47:../include/range_algs.h **** 
  48:../include/range_algs.h **** 
  49:../include/range_algs.h **** rnb last_good_rnb;
  50:../include/range_algs.h **** volatile uint8_t rnb_updated;
  51:../include/range_algs.h **** volatile id_t rnbCmdID;
  52:../include/range_algs.h **** volatile uint32_t rnbCmdSentTime;
  53:../include/range_algs.h **** volatile uint8_t rnbProcessingFlag;
  54:../include/range_algs.h **** 
  55:../include/range_algs.h **** void range_algs_init(void);
  56:../include/range_algs.h **** 
  57:../include/range_algs.h **** void broadcast_rnb_data(void); //takes about 142ms.
  58:../include/range_algs.h **** //void receive_rnb_data(void);
  59:../include/range_algs.h **** void use_rnb_data(void);
  60:../include/range_algs.h **** 
  61:../include/range_algs.h **** 
  62:../include/range_algs.h **** void ir_range_meas(void);
  63:../include/range_algs.h **** void ir_range_blast(uint8_t power);
  64:../include/range_algs.h **** 
  65:../include/range_algs.h **** inline int8_t sgn(float x){
  66:../include/range_algs.h **** 	return (0<x)-(x<0);
  67:../include/range_algs.h **** }
  68:../include/range_algs.h **** 
  69:../include/range_algs.h **** inline int16_t pretty_angle_deg(int16_t angle){
  70:../include/range_algs.h **** 	return (angle>=0) ? (( (angle + 180) % 360 ) - 180) : (( (angle - 180) % 360 ) + 180);
  71:../include/range_algs.h **** }
  72:../include/range_algs.h **** 
  73:../include/range_algs.h **** inline float pretty_angle(float angle){
  74:../include/range_algs.h **** 	return (angle>=0.0) ? ( fmodf(angle + M_PI, 2.0*M_PI) - M_PI ) : ( fmodf(angle - M_PI, 2.0*M_PI) +
  75:../include/range_algs.h **** }
  76:../include/range_algs.h **** 
  77:../include/range_algs.h **** inline float rad_to_deg(float rad){
  78:../include/range_algs.h **** 	return (pretty_angle(rad) / M_PI) * 180;
  79:../include/range_algs.h **** }
  80:../include/range_algs.h **** 
  81:../include/range_algs.h **** inline float deg_to_rad(float deg){
  82:../include/range_algs.h **** 	return pretty_angle( (deg / 180) * M_PI );
 1018               		.loc 2 82 0
 1019 007c 6091 0000 		lds r22,myPos+4
 1020 0080 7091 0000 		lds r23,myPos+4+1
 1021 0084 072E      		mov __tmp_reg__,r23
 1022 0086 000C      		lsl r0
 1023 0088 880B      		sbc r24,r24
 1024 008a 990B      		sbc r25,r25
 1025 008c 0E94 0000 		call __floatsisf
 1026               	.LVL54:
 1027 0090 20E0      		ldi r18,0
 1028 0092 30E0      		ldi r19,0
 1029 0094 44E3      		ldi r20,lo8(52)
 1030 0096 53E4      		ldi r21,lo8(67)
 1031 0098 0E94 0000 		call __divsf3
 1032               	.LVL55:
 1033 009c 2BED      		ldi r18,lo8(-37)
 1034 009e 3FE0      		ldi r19,lo8(15)
 1035 00a0 49E4      		ldi r20,lo8(73)
 1036 00a2 50E4      		ldi r21,lo8(64)
 1037 00a4 0E94 0000 		call __mulsf3
 1038               	.LVL56:
 1039 00a8 4B01      		movw r8,r22
 1040 00aa 5C01      		movw r10,r24
 1041               	.LVL57:
 1042               	.LBB182:
 1043               	.LBB183:
  74:../include/range_algs.h **** }
 1044               		.loc 2 74 0
 1045 00ac 20E0      		ldi r18,0
 1046 00ae 30E0      		ldi r19,0
 1047 00b0 A901      		movw r20,r18
 1048 00b2 0E94 0000 		call __gesf2
 1049               	.LVL58:
 1050 00b6 2BED      		ldi r18,lo8(-37)
 1051 00b8 3FE0      		ldi r19,lo8(15)
 1052 00ba 49E4      		ldi r20,lo8(73)
 1053 00bc 50E4      		ldi r21,lo8(64)
 1054 00be 87FD      		sbrc r24,7
 1055 00c0 00C0      		rjmp .L65
 1056 00c2 C501      		movw r24,r10
 1057 00c4 B401      		movw r22,r8
 1058 00c6 0E94 0000 		call __addsf3
 1059               	.LVL59:
 1060 00ca 2BED      		ldi r18,lo8(-37)
 1061 00cc 3FE0      		ldi r19,lo8(15)
 1062 00ce 49EC      		ldi r20,lo8(-55)
 1063 00d0 50E4      		ldi r21,lo8(64)
 1064 00d2 0E94 0000 		call fmod
 1065               	.LVL60:
 1066 00d6 2BED      		ldi r18,lo8(-37)
 1067 00d8 3FE0      		ldi r19,lo8(15)
 1068 00da 49E4      		ldi r20,lo8(73)
 1069 00dc 50E4      		ldi r21,lo8(64)
 1070 00de 0E94 0000 		call __subsf3
 1071               	.LVL61:
 1072               	.L26:
 1073               	.LBE183:
 1074               	.LBE182:
 1075               	.LBE181:
 1076               	.LBE180:
 175:../src/localization.c **** 	if(!POS_DEFINED(pos)){
 1077               		.loc 1 175 0
 1078 00e2 CB50      		subi r28,lo8(-501)
 1079 00e4 DE4F      		sbci r29,hi8(-501)
 1080 00e6 6883      		st Y,r22
 1081 00e8 7983      		std Y+1,r23
 1082 00ea 8A83      		std Y+2,r24
 1083 00ec 9B83      		std Y+3,r25
 1084 00ee C55F      		subi r28,lo8(501)
 1085 00f0 D140      		sbci r29,hi8(501)
 176:../src/localization.c **** 		MY_POS_DEBUG_PRINT(" sent me an undefined position.\r\n");
 1086               		.loc 1 176 0
 1087 00f2 F801      		movw r30,r16
 1088 00f4 8081      		ld r24,Z
 1089 00f6 9181      		ldd r25,Z+1
 1090 00f8 8115      		cp r24,__zero_reg__
 1091 00fa F0E8      		ldi r31,-128
 1092 00fc 9F07      		cpc r25,r31
 1093 00fe 01F4      		brne .+2
 1094 0100 00C0      		rjmp .L27
 176:../src/localization.c **** 		MY_POS_DEBUG_PRINT(" sent me an undefined position.\r\n");
 1095               		.loc 1 176 0 is_stmt 0 discriminator 1
 1096 0102 F801      		movw r30,r16
 1097 0104 2281      		ldd r18,Z+2
 1098 0106 3381      		ldd r19,Z+3
 1099 0108 2115      		cp r18,__zero_reg__
 1100 010a F0E8      		ldi r31,-128
 1101 010c 3F07      		cpc r19,r31
 1102 010e 01F4      		brne .+2
 1103 0110 00C0      		rjmp .L27
 176:../src/localization.c **** 		MY_POS_DEBUG_PRINT(" sent me an undefined position.\r\n");
 1104               		.loc 1 176 0 discriminator 2
 1105 0112 F801      		movw r30,r16
 1106 0114 4481      		ldd r20,Z+4
 1107 0116 5581      		ldd r21,Z+5
 1108 0118 4115      		cp r20,__zero_reg__
 1109 011a F0E8      		ldi r31,-128
 1110 011c 5F07      		cpc r21,r31
 1111 011e 01F4      		brne .+2
 1112 0120 00C0      		rjmp .L27
 180:../src/localization.c **** 	Vector xMeFromYou = {pos->x, pos->y, deg_to_rad(pos->o)};
 1113               		.loc 1 180 0 is_stmt 1
 1114 0122 5F93      		push r21
 1115 0124 4F93      		push r20
 1116 0126 3F93      		push r19
 1117 0128 2F93      		push r18
 1118 012a 9F93      		push r25
 1119 012c 8F93      		push r24
 1120 012e 80E0      		ldi r24,lo8(__c.5509)
 1121 0130 90E0      		ldi r25,hi8(__c.5509)
 1122 0132 9F93      		push r25
 1123 0134 8F93      		push r24
 1124 0136 0E94 0000 		call printf_P
 1125               	.LVL62:
 181:../src/localization.c **** 	Matrix myP;
 1126               		.loc 1 181 0
 1127 013a F801      		movw r30,r16
 1128 013c 6081      		ld r22,Z
 1129 013e 7181      		ldd r23,Z+1
 1130 0140 072E      		mov __tmp_reg__,r23
 1131 0142 000C      		lsl r0
 1132 0144 880B      		sbc r24,r24
 1133 0146 990B      		sbc r25,r25
 1134 0148 0E94 0000 		call __floatsisf
 1135               	.LVL63:
 1136 014c CF51      		subi r28,lo8(-481)
 1137 014e DE4F      		sbci r29,hi8(-481)
 1138 0150 6883      		st Y,r22
 1139 0152 7983      		std Y+1,r23
 1140 0154 8A83      		std Y+2,r24
 1141 0156 9B83      		std Y+3,r25
 1142 0158 C15E      		subi r28,lo8(481)
 1143 015a D140      		sbci r29,hi8(481)
 1144 015c F801      		movw r30,r16
 1145 015e 6281      		ldd r22,Z+2
 1146 0160 7381      		ldd r23,Z+3
 1147 0162 072E      		mov __tmp_reg__,r23
 1148 0164 000C      		lsl r0
 1149 0166 880B      		sbc r24,r24
 1150 0168 990B      		sbc r25,r25
 1151 016a 0E94 0000 		call __floatsisf
 1152               	.LVL64:
 1153 016e CB51      		subi r28,lo8(-485)
 1154 0170 DE4F      		sbci r29,hi8(-485)
 1155 0172 6883      		st Y,r22
 1156 0174 7983      		std Y+1,r23
 1157 0176 8A83      		std Y+2,r24
 1158 0178 9B83      		std Y+3,r25
 1159 017a C55E      		subi r28,lo8(485)
 1160 017c D140      		sbci r29,hi8(485)
 1161               	.LVL65:
 1162               	.LBB187:
 1163               	.LBB188:
 1164               		.loc 2 82 0
 1165 017e F801      		movw r30,r16
 1166 0180 6481      		ldd r22,Z+4
 1167 0182 7581      		ldd r23,Z+5
 1168 0184 072E      		mov __tmp_reg__,r23
 1169 0186 000C      		lsl r0
 1170 0188 880B      		sbc r24,r24
 1171 018a 990B      		sbc r25,r25
 1172 018c 0E94 0000 		call __floatsisf
 1173               	.LVL66:
 1174 0190 20E0      		ldi r18,0
 1175 0192 30E0      		ldi r19,0
 1176 0194 44E3      		ldi r20,lo8(52)
 1177 0196 53E4      		ldi r21,lo8(67)
 1178 0198 0E94 0000 		call __divsf3
 1179               	.LVL67:
 1180 019c 2BED      		ldi r18,lo8(-37)
 1181 019e 3FE0      		ldi r19,lo8(15)
 1182 01a0 49E4      		ldi r20,lo8(73)
 1183 01a2 50E4      		ldi r21,lo8(64)
 1184 01a4 0E94 0000 		call __mulsf3
 1185               	.LVL68:
 1186 01a8 4B01      		movw r8,r22
 1187 01aa 5C01      		movw r10,r24
 1188               	.LVL69:
 1189               	.LBB189:
 1190               	.LBB190:
  74:../include/range_algs.h **** }
 1191               		.loc 2 74 0
 1192 01ac CDBF      		out __SP_L__,r28
 1193 01ae DEBF      		out __SP_H__,r29
 1194 01b0 20E0      		ldi r18,0
 1195 01b2 30E0      		ldi r19,0
 1196 01b4 A901      		movw r20,r18
 1197 01b6 0E94 0000 		call __gesf2
 1198               	.LVL70:
 1199 01ba 2BED      		ldi r18,lo8(-37)
 1200 01bc 3FE0      		ldi r19,lo8(15)
 1201 01be 49E4      		ldi r20,lo8(73)
 1202 01c0 50E4      		ldi r21,lo8(64)
 1203 01c2 87FD      		sbrc r24,7
 1204 01c4 00C0      		rjmp .L66
 1205 01c6 C501      		movw r24,r10
 1206 01c8 B401      		movw r22,r8
 1207 01ca 0E94 0000 		call __addsf3
 1208               	.LVL71:
 1209 01ce 2BED      		ldi r18,lo8(-37)
 1210 01d0 3FE0      		ldi r19,lo8(15)
 1211 01d2 49EC      		ldi r20,lo8(-55)
 1212 01d4 50E4      		ldi r21,lo8(64)
 1213 01d6 0E94 0000 		call fmod
 1214               	.LVL72:
 1215 01da 2BED      		ldi r18,lo8(-37)
 1216 01dc 3FE0      		ldi r19,lo8(15)
 1217 01de 49E4      		ldi r20,lo8(73)
 1218 01e0 50E4      		ldi r21,lo8(64)
 1219 01e2 0E94 0000 		call __subsf3
 1220               	.LVL73:
 1221               	.L32:
 1222               	.LBE190:
 1223               	.LBE189:
 1224               	.LBE188:
 1225               	.LBE187:
 181:../src/localization.c **** 	Matrix myP;
 1226               		.loc 1 181 0
 1227 01e6 C751      		subi r28,lo8(-489)
 1228 01e8 DE4F      		sbci r29,hi8(-489)
 1229 01ea 6883      		st Y,r22
 1230 01ec 7983      		std Y+1,r23
 1231 01ee 8A83      		std Y+2,r24
 1232 01f0 9B83      		std Y+3,r25
 1233 01f2 C95E      		subi r28,lo8(489)
 1234 01f4 D140      		sbci r29,hi8(489)
 183:../src/localization.c **** 	Matrix myNewP;
 1235               		.loc 1 183 0
 1236 01f6 60E0      		ldi r22,lo8(myPosCovar)
 1237 01f8 70E0      		ldi r23,hi8(myPosCovar)
 1238 01fa CE01      		movw r24,r28
 1239 01fc 8357      		subi r24,115
 1240 01fe 9E4F      		sbci r25,-2
 1241 0200 0E94 0000 		call decompressP
 1242               	.LVL74:
 1243               	.LBB194:
 1244               	.LBB195:
  81:../src/localization.c **** 	Matrix A_plus_B_inv;
 1245               		.loc 1 81 0
 1246 0204 AE01      		movw r20,r28
 1247 0206 4F51      		subi r20,31
 1248 0208 5E4F      		sbci r21,-2
 1249 020a BE01      		movw r22,r28
 1250 020c 6351      		subi r22,19
 1251 020e 7E4F      		sbci r23,-2
 1252 0210 CE01      		movw r24,r28
 1253 0212 875B      		subi r24,-73
 1254 0214 9F4F      		sbci r25,-1
 1255 0216 0E94 0000 		call vectorSubtract
 1256               	.LVL75:
  83:../src/localization.c **** 	matrixInplaceInverse(&A_plus_B_inv);
 1257               		.loc 1 83 0
 1258 021a A701      		movw r20,r14
 1259 021c BE01      		movw r22,r28
 1260 021e 6357      		subi r22,115
 1261 0220 7E4F      		sbci r23,-2
 1262 0222 CE01      		movw r24,r28
 1263 0224 0196      		adiw r24,1
 1264 0226 0E94 0000 		call matrixAdd
 1265               	.LVL76:
  84:../src/localization.c **** 	Vector a_sub_b_normed;
 1266               		.loc 1 84 0
 1267 022a CE01      		movw r24,r28
 1268 022c 0196      		adiw r24,1
 1269 022e 0E94 0000 		call matrixInplaceInverse
 1270               	.LVL77:
  86:../src/localization.c **** 	//Now, a_sub_b_normed = (A+B)^{-1} X (a-b)
 1271               		.loc 1 86 0
 1272 0232 AE01      		movw r20,r28
 1273 0234 475B      		subi r20,-73
 1274 0236 5F4F      		sbci r21,-1
 1275 0238 BE01      		movw r22,r28
 1276 023a 6F5F      		subi r22,-1
 1277 023c 7F4F      		sbci r23,-1
 1278 023e CE01      		movw r24,r28
 1279 0240 8596      		adiw r24,37
 1280 0242 0E94 0000 		call matrixTimesVector
 1281               	.LVL78:
  88:../src/localization.c **** 	//Now, distance = (a-b)^{tr} X (A+B)^{-1} X (a-b)
 1282               		.loc 1 88 0
 1283 0246 2DA1      		ldd r18,Y+37
 1284 0248 3EA1      		ldd r19,Y+38
 1285 024a 4FA1      		ldd r20,Y+39
 1286 024c 58A5      		ldd r21,Y+40
 1287 024e 2D96      		adiw r28,73-60
 1288 0250 6CAD      		ldd r22,Y+60
 1289 0252 7DAD      		ldd r23,Y+61
 1290 0254 8EAD      		ldd r24,Y+62
 1291 0256 9FAD      		ldd r25,Y+63
 1292 0258 2D97      		sbiw r28,73-60
 1293 025a 0E94 0000 		call __mulsf3
 1294               	.LVL79:
 1295 025e 4B01      		movw r8,r22
 1296 0260 5C01      		movw r10,r24
 1297 0262 29A5      		ldd r18,Y+41
 1298 0264 3AA5      		ldd r19,Y+42
 1299 0266 4BA5      		ldd r20,Y+43
 1300 0268 5CA5      		ldd r21,Y+44
 1301 026a 6196      		adiw r28,77-60
 1302 026c 6CAD      		ldd r22,Y+60
 1303 026e 7DAD      		ldd r23,Y+61
 1304 0270 8EAD      		ldd r24,Y+62
 1305 0272 9FAD      		ldd r25,Y+63
 1306 0274 6197      		sbiw r28,77-60
 1307 0276 0E94 0000 		call __mulsf3
 1308               	.LVL80:
 1309 027a 9B01      		movw r18,r22
 1310 027c AC01      		movw r20,r24
 1311 027e C501      		movw r24,r10
 1312 0280 B401      		movw r22,r8
 1313 0282 0E94 0000 		call __addsf3
 1314               	.LVL81:
 1315 0286 4B01      		movw r8,r22
 1316 0288 5C01      		movw r10,r24
 1317 028a 2DA5      		ldd r18,Y+45
 1318 028c 3EA5      		ldd r19,Y+46
 1319 028e 4FA5      		ldd r20,Y+47
 1320 0290 58A9      		ldd r21,Y+48
 1321 0292 6596      		adiw r28,81-60
 1322 0294 6CAD      		ldd r22,Y+60
 1323 0296 7DAD      		ldd r23,Y+61
 1324 0298 8EAD      		ldd r24,Y+62
 1325 029a 9FAD      		ldd r25,Y+63
 1326 029c 6597      		sbiw r28,81-60
 1327 029e 0E94 0000 		call __mulsf3
 1328               	.LVL82:
 1329 02a2 9B01      		movw r18,r22
 1330 02a4 AC01      		movw r20,r24
 1331 02a6 C501      		movw r24,r10
 1332 02a8 B401      		movw r22,r8
 1333 02aa 0E94 0000 		call __addsf3
 1334               	.LVL83:
 1335               	.LBE195:
 1336               	.LBE194:
 188:../src/localization.c **** 	covarIntersection(&myNewPos, &myNewP, &xMe, &myP, &xMeFromYou, yourP);
 1337               		.loc 1 188 0
 1338 02ae 0E94 0000 		call sqrtf
 1339               	.LVL84:
 1340 02b2 D62E      		mov r13,r22
 1341 02b4 C72E      		mov r12,r23
 1342 02b6 782E      		mov r7,r24
 1343 02b8 692E      		mov r6,r25
 1344               	.LVL85:
 1345               	.LBB196:
 1346               	.LBB197:
 102:../src/localization.c **** 	Matrix B_inv;
 1347               		.loc 1 102 0
 1348 02ba BE01      		movw r22,r28
 1349 02bc 6357      		subi r22,115
 1350 02be 7E4F      		sbci r23,-2
 1351 02c0 CE01      		movw r24,r28
 1352 02c2 875B      		subi r24,-73
 1353 02c4 9F4F      		sbci r25,-1
 1354 02c6 0E94 0000 		call matrixInverse
 1355               	.LVL86:
 104:../src/localization.c **** 	float omega = chooseOmega(&A_inv, &B_inv);
 1356               		.loc 1 104 0
 1357 02ca B701      		movw r22,r14
 1358 02cc CE01      		movw r24,r28
 1359 02ce 8596      		adiw r24,37
 1360 02d0 0E94 0000 		call matrixInverse
 1361               	.LVL87:
 1362               	.LBB198:
 1363               	.LBB199:
  70:../src/localization.c **** 	float sumDet = matrixDet(&sum);
 1364               		.loc 1 70 0
 1365 02d4 AE01      		movw r20,r28
 1366 02d6 4B5D      		subi r20,-37
 1367 02d8 5F4F      		sbci r21,-1
 1368 02da BE01      		movw r22,r28
 1369 02dc 675B      		subi r22,-73
 1370 02de 7F4F      		sbci r23,-1
 1371 02e0 CE01      		movw r24,r28
 1372 02e2 0196      		adiw r24,1
 1373 02e4 0E94 0000 		call matrixAdd
 1374               	.LVL88:
  71:../src/localization.c **** 	float myInvDet = matrixDet(myPinv);
 1375               		.loc 1 71 0
 1376 02e8 CE01      		movw r24,r28
 1377 02ea 0196      		adiw r24,1
 1378 02ec 0E94 0000 		call matrixDet
 1379               	.LVL89:
 1380 02f0 4B01      		movw r8,r22
 1381 02f2 5C01      		movw r10,r24
 1382               	.LVL90:
  72:../src/localization.c **** 	float yourInvDet = matrixDet(yourPinv);
 1383               		.loc 1 72 0
 1384 02f4 CE01      		movw r24,r28
 1385 02f6 875B      		subi r24,-73
 1386 02f8 9F4F      		sbci r25,-1
 1387 02fa 0E94 0000 		call matrixDet
 1388               	.LVL91:
 1389 02fe 1B01      		movw r2,r22
 1390 0300 2C01      		movw r4,r24
 1391               	.LVL92:
  73:../src/localization.c **** 	omega = (sumDet - yourInvDet + myInvDet)/(2*sumDet);
 1392               		.loc 1 73 0
 1393 0302 CE01      		movw r24,r28
 1394 0304 8596      		adiw r24,37
 1395 0306 0E94 0000 		call matrixDet
 1396               	.LVL93:
 1397 030a 9B01      		movw r18,r22
 1398 030c AC01      		movw r20,r24
 1399               	.LVL94:
  74:../src/localization.c **** 	omega = omega>1.0 ? 1.0 : (omega<0.0 ? 0.0 : omega);
 1400               		.loc 1 74 0
 1401 030e C501      		movw r24,r10
 1402 0310 B401      		movw r22,r8
 1403 0312 0E94 0000 		call __subsf3
 1404               	.LVL95:
 1405 0316 A201      		movw r20,r4
 1406 0318 9101      		movw r18,r2
 1407 031a 0E94 0000 		call __addsf3
 1408               	.LVL96:
 1409 031e 1B01      		movw r2,r22
 1410 0320 2C01      		movw r4,r24
 1411               	.LVL97:
 1412 0322 A501      		movw r20,r10
 1413 0324 9401      		movw r18,r8
 1414 0326 C501      		movw r24,r10
 1415 0328 B401      		movw r22,r8
 1416 032a 0E94 0000 		call __addsf3
 1417               	.LVL98:
 1418 032e 9B01      		movw r18,r22
 1419 0330 AC01      		movw r20,r24
 1420 0332 C201      		movw r24,r4
 1421 0334 B101      		movw r22,r2
 1422 0336 0E94 0000 		call __divsf3
 1423               	.LVL99:
 1424 033a 4B01      		movw r8,r22
 1425 033c 5C01      		movw r10,r24
 1426               	.LVL100:
  75:../src/localization.c **** 	return omega;
 1427               		.loc 1 75 0
 1428 033e 20E0      		ldi r18,0
 1429 0340 30E0      		ldi r19,0
 1430 0342 40E8      		ldi r20,lo8(-128)
 1431 0344 5FE3      		ldi r21,lo8(63)
 1432 0346 0E94 0000 		call __gtsf2
 1433               	.LVL101:
 1434 034a 1816      		cp __zero_reg__,r24
 1435 034c 04F0      		brlt .+2
 1436 034e 00C0      		rjmp .L69
 1437 0350 812C      		mov r8,__zero_reg__
 1438 0352 912C      		mov r9,__zero_reg__
 1439 0354 30E8      		ldi r19,lo8(-128)
 1440 0356 A32E      		mov r10,r19
 1441 0358 3FE3      		ldi r19,lo8(63)
 1442 035a B32E      		mov r11,r19
 1443               	.LVL102:
 1444               	.L33:
 1445               	.LBE199:
 1446               	.LBE198:
 107:../src/localization.c **** 	matrixScale(&B_inv, 1.0-omega);
 1447               		.loc 1 107 0
 1448 035c B501      		movw r22,r10
 1449 035e A401      		movw r20,r8
 1450 0360 CE01      		movw r24,r28
 1451 0362 875B      		subi r24,-73
 1452 0364 9F4F      		sbci r25,-1
 1453 0366 0E94 0000 		call matrixScale
 1454               	.LVL103:
 108:../src/localization.c **** 	matrixAdd(P, &A_inv, &B_inv);
 1455               		.loc 1 108 0
 1456 036a A501      		movw r20,r10
 1457 036c 9401      		movw r18,r8
 1458 036e 60E0      		ldi r22,0
 1459 0370 70E0      		ldi r23,0
 1460 0372 80E8      		ldi r24,lo8(-128)
 1461 0374 9FE3      		ldi r25,lo8(63)
 1462 0376 0E94 0000 		call __subsf3
 1463               	.LVL104:
 1464 037a AB01      		movw r20,r22
 1465 037c BC01      		movw r22,r24
 1466 037e CE01      		movw r24,r28
 1467 0380 8596      		adiw r24,37
 1468 0382 0E94 0000 		call matrixScale
 1469               	.LVL105:
 109:../src/localization.c **** 	matrixInplaceInverse(P);
 1470               		.loc 1 109 0
 1471 0386 AE01      		movw r20,r28
 1472 0388 4B5D      		subi r20,-37
 1473 038a 5F4F      		sbci r21,-1
 1474 038c BE01      		movw r22,r28
 1475 038e 675B      		subi r22,-73
 1476 0390 7F4F      		sbci r23,-1
 1477 0392 CE01      		movw r24,r28
 1478 0394 8759      		subi r24,-105
 1479 0396 9E4F      		sbci r25,-2
 1480 0398 0E94 0000 		call matrixAdd
 1481               	.LVL106:
 110:../src/localization.c **** 	//myNewPos = myNewP*(omega*myPinv*myPrevPos + (1-omega)*yourPinv*yourPos)
 1482               		.loc 1 110 0
 1483 039c CE01      		movw r24,r28
 1484 039e 8759      		subi r24,-105
 1485 03a0 9E4F      		sbci r25,-2
 1486 03a2 0E94 0000 		call matrixInplaceInverse
 1487               	.LVL107:
 112:../src/localization.c **** 	Vector tmp;
 1488               		.loc 1 112 0
 1489 03a6 AE01      		movw r20,r28
 1490 03a8 4351      		subi r20,19
 1491 03aa 5E4F      		sbci r21,-2
 1492 03ac BE01      		movw r22,r28
 1493 03ae 675B      		subi r22,-73
 1494 03b0 7F4F      		sbci r23,-1
 1495 03b2 CE01      		movw r24,r28
 1496 03b4 8B52      		subi r24,43
 1497 03b6 9E4F      		sbci r25,-2
 1498 03b8 0E94 0000 		call matrixTimesVector
 1499               	.LVL108:
 114:../src/localization.c **** 	vectorAdd(&tmp, x, &tmp);
 1500               		.loc 1 114 0
 1501 03bc AE01      		movw r20,r28
 1502 03be 4F51      		subi r20,31
 1503 03c0 5E4F      		sbci r21,-2
 1504 03c2 BE01      		movw r22,r28
 1505 03c4 6B5D      		subi r22,-37
 1506 03c6 7F4F      		sbci r23,-1
 1507 03c8 CE01      		movw r24,r28
 1508 03ca 0196      		adiw r24,1
 1509 03cc 0E94 0000 		call matrixTimesVector
 1510               	.LVL109:
 115:../src/localization.c **** 	matrixTimesVector(x, P, &tmp);
 1511               		.loc 1 115 0
 1512 03d0 AE01      		movw r20,r28
 1513 03d2 4F5F      		subi r20,-1
 1514 03d4 5F4F      		sbci r21,-1
 1515 03d6 BE01      		movw r22,r28
 1516 03d8 6B52      		subi r22,43
 1517 03da 7E4F      		sbci r23,-2
 1518 03dc CA01      		movw r24,r20
 1519 03de 0E94 0000 		call vectorAdd
 1520               	.LVL110:
 116:../src/localization.c **** }
 1521               		.loc 1 116 0
 1522 03e2 AE01      		movw r20,r28
 1523 03e4 4F5F      		subi r20,-1
 1524 03e6 5F4F      		sbci r21,-1
 1525 03e8 BE01      		movw r22,r28
 1526 03ea 6759      		subi r22,-105
 1527 03ec 7E4F      		sbci r23,-2
 1528 03ee CE01      		movw r24,r28
 1529 03f0 8B52      		subi r24,43
 1530 03f2 9E4F      		sbci r25,-2
 1531 03f4 0E94 0000 		call matrixTimesVector
 1532               	.LVL111:
 1533               	.LBE197:
 1534               	.LBE196:
 190:../src/localization.c **** 		//This mDist corresponds to a likelihood (of consistency..?) of ~0.1%
 1535               		.loc 1 190 0
 1536 03f8 20E0      		ldi r18,0
 1537 03fa 30E0      		ldi r19,0
 1538 03fc 40E8      		ldi r20,lo8(-128)
 1539 03fe 50E4      		ldi r21,lo8(64)
 1540 0400 D601      		movw r26,r12
 1541 0402 F301      		movw r30,r6
 1542 0404 6B2F      		mov r22,r27
 1543 0406 7C2D      		mov r23,r12
 1544 0408 8F2F      		mov r24,r31
 1545 040a 962D      		mov r25,r6
 1546 040c 0E94 0000 		call __gtsf2
 1547               	.LVL112:
 1548 0410 1816      		cp __zero_reg__,r24
 1549 0412 04F4      		brge .+2
 1550 0414 00C0      		rjmp .L70
 195:../src/localization.c **** 		//This mDist corresponds to a likelihood (of consistency..?) of ~80%
 1551               		.loc 1 195 0
 1552 0416 20E0      		ldi r18,0
 1553 0418 30E0      		ldi r19,0
 1554 041a 40E8      		ldi r20,lo8(-128)
 1555 041c 5FE3      		ldi r21,lo8(63)
 1556 041e D601      		movw r26,r12
 1557 0420 F301      		movw r30,r6
 1558 0422 6B2F      		mov r22,r27
 1559 0424 7C2D      		mov r23,r12
 1560 0426 8F2F      		mov r24,r31
 1561 0428 962D      		mov r25,r6
 1562 042a 0E94 0000 		call __gtsf2
 1563               	.LVL113:
 1564 042e 1816      		cp __zero_reg__,r24
 1565 0430 04F0      		brlt .+2
 1566 0432 00C0      		rjmp .L37
 1567               	.LVL114:
 1568               	.LBB203:
 1569               	.LBB204:
 128:../src/localization.c **** 	Matrix U_a;
 1570               		.loc 1 128 0
 1571 0434 AE01      		movw r20,r28
 1572 0436 4351      		subi r20,19
 1573 0438 5E4F      		sbci r21,-2
 1574 043a BE01      		movw r22,r28
 1575 043c 6B52      		subi r22,43
 1576 043e 7E4F      		sbci r23,-2
 1577 0440 CE01      		movw r24,r28
 1578 0442 8753      		subi r24,55
 1579 0444 9E4F      		sbci r25,-2
 1580 0446 0E94 0000 		call vectorSubtract
 1581               	.LVL115:
 130:../src/localization.c **** 	matrixAdd(&U_a, A, &U_a);
 1582               		.loc 1 130 0
 1583 044a BE01      		movw r22,r28
 1584 044c 6753      		subi r22,55
 1585 044e 7E4F      		sbci r23,-2
 1586 0450 CE01      		movw r24,r28
 1587 0452 8B5B      		subi r24,-69
 1588 0454 9E4F      		sbci r25,-2
 1589 0456 0E94 0000 		call vectorSquare
 1590               	.LVL116:
 131:../src/localization.c **** 
 1591               		.loc 1 131 0
 1592 045a AE01      		movw r20,r28
 1593 045c 4B5B      		subi r20,-69
 1594 045e 5E4F      		sbci r21,-2
 1595 0460 BE01      		movw r22,r28
 1596 0462 6357      		subi r22,115
 1597 0464 7E4F      		sbci r23,-2
 1598 0466 CA01      		movw r24,r20
 1599 0468 0E94 0000 		call matrixAdd
 1600               	.LVL117:
 134:../src/localization.c **** 	Matrix U_b;
 1601               		.loc 1 134 0
 1602 046c AE01      		movw r20,r28
 1603 046e 4F51      		subi r20,31
 1604 0470 5E4F      		sbci r21,-2
 1605 0472 BE01      		movw r22,r28
 1606 0474 6B52      		subi r22,43
 1607 0476 7E4F      		sbci r23,-2
 1608 0478 CE01      		movw r24,r28
 1609 047a 8354      		subi r24,67
 1610 047c 9E4F      		sbci r25,-2
 1611 047e 0E94 0000 		call vectorSubtract
 1612               	.LVL118:
 136:../src/localization.c **** 	matrixAdd(&U_b, B, &U_b);
 1613               		.loc 1 136 0
 1614 0482 BE01      		movw r22,r28
 1615 0484 6354      		subi r22,67
 1616 0486 7E4F      		sbci r23,-2
 1617 0488 CE01      		movw r24,r28
 1618 048a 8F5D      		subi r24,-33
 1619 048c 9E4F      		sbci r25,-2
 1620 048e 0E94 0000 		call vectorSquare
 1621               	.LVL119:
 137:../src/localization.c **** 	Matrix S;
 1622               		.loc 1 137 0
 1623 0492 AE01      		movw r20,r28
 1624 0494 4F5D      		subi r20,-33
 1625 0496 5E4F      		sbci r21,-2
 1626 0498 B701      		movw r22,r14
 1627 049a CA01      		movw r24,r20
 1628 049c 0E94 0000 		call matrixAdd
 1629               	.LVL120:
 139:../src/localization.c **** 	Matrix S_tr;
 1630               		.loc 1 139 0
 1631 04a0 BE01      		movw r22,r28
 1632 04a2 6F5D      		subi r22,-33
 1633 04a4 7E4F      		sbci r23,-2
 1634 04a6 CE01      		movw r24,r28
 1635 04a8 8350      		subi r24,3
 1636 04aa 9F4F      		sbci r25,-1
 1637 04ac 0E94 0000 		call choleskyDecomposition
 1638               	.LVL121:
 141:../src/localization.c **** 
 1639               		.loc 1 141 0
 1640 04b0 BE01      		movw r22,r28
 1641 04b2 6350      		subi r22,3
 1642 04b4 7F4F      		sbci r23,-1
 1643 04b6 CE01      		movw r24,r28
 1644 04b8 8752      		subi r24,39
 1645 04ba 9F4F      		sbci r25,-1
 1646 04bc 0E94 0000 		call matrixTranspose
 1647               	.LVL122:
 144:../src/localization.c **** 
 1648               		.loc 1 144 0
 1649 04c0 BE01      		movw r22,r28
 1650 04c2 6350      		subi r22,3
 1651 04c4 7F4F      		sbci r23,-1
 1652 04c6 CE01      		movw r24,r28
 1653 04c8 8B54      		subi r24,75
 1654 04ca 9F4F      		sbci r25,-1
 1655 04cc 0E94 0000 		call matrixInverse
 1656               	.LVL123:
 147:../src/localization.c **** 	matrixInplaceTranspose(&S_inv);
 1657               		.loc 1 147 0
 1658 04d0 AE01      		movw r20,r28
 1659 04d2 4B54      		subi r20,75
 1660 04d4 5F4F      		sbci r21,-1
 1661 04d6 BE01      		movw r22,r28
 1662 04d8 6B5B      		subi r22,-69
 1663 04da 7E4F      		sbci r23,-2
 1664 04dc CE01      		movw r24,r28
 1665 04de 8F56      		subi r24,111
 1666 04e0 9F4F      		sbci r25,-1
 1667 04e2 0E94 0000 		call matrixMultiply
 1668               	.LVL124:
 148:../src/localization.c **** 	matrixInplaceMultiply(&TMP, &S_inv, &TMP);
 1669               		.loc 1 148 0
 1670 04e6 CE01      		movw r24,r28
 1671 04e8 8B54      		subi r24,75
 1672 04ea 9F4F      		sbci r25,-1
 1673 04ec 0E94 0000 		call matrixInplaceTranspose
 1674               	.LVL125:
 149:../src/localization.c **** 
 1675               		.loc 1 149 0
 1676 04f0 AE01      		movw r20,r28
 1677 04f2 4F56      		subi r20,111
 1678 04f4 5F4F      		sbci r21,-1
 1679 04f6 BE01      		movw r22,r28
 1680 04f8 6B54      		subi r22,75
 1681 04fa 7F4F      		sbci r23,-1
 1682 04fc CA01      		movw r24,r20
 1683 04fe 0E94 0000 		call matrixInplaceMultiply
 1684               	.LVL126:
 153:../src/localization.c **** 	Matrix D = {{eigVals[0], 0, 0}, {0, eigVals[1], 0}, {0, 0, eigVals[2]}};
 1685               		.loc 1 153 0
 1686 0502 AE01      		movw r20,r28
 1687 0504 4F56      		subi r20,111
 1688 0506 5F4F      		sbci r21,-1
 1689 0508 BE01      		movw r22,r28
 1690 050a 6359      		subi r22,-109
 1691 050c 7F4F      		sbci r23,-1
 1692 050e CE01      		movw r24,r28
 1693 0510 8F54      		subi r24,79
 1694 0512 9E4F      		sbci r25,-2
 1695 0514 0E94 0000 		call eigensystem
 1696               	.LVL127:
 154:../src/localization.c **** 
 1697               		.loc 1 154 0
 1698 0518 CF54      		subi r28,lo8(-433)
 1699 051a DE4F      		sbci r29,hi8(-433)
 1700 051c 2880      		ld r2,Y
 1701 051e 3980      		ldd r3,Y+1
 1702 0520 4A80      		ldd r4,Y+2
 1703 0522 5B80      		ldd r5,Y+3
 1704 0524 C15B      		subi r28,lo8(433)
 1705 0526 D140      		sbci r29,hi8(433)
 1706 0528 2D96      		adiw r28,73-60
 1707 052a 2CAE      		std Y+60,r2
 1708 052c 3DAE      		std Y+61,r3
 1709 052e 4EAE      		std Y+62,r4
 1710 0530 5FAE      		std Y+63,r5
 1711 0532 2D97      		sbiw r28,73-60
 1712 0534 6196      		adiw r28,77-60
 1713 0536 1CAE      		std Y+60,__zero_reg__
 1714 0538 1DAE      		std Y+61,__zero_reg__
 1715 053a 1EAE      		std Y+62,__zero_reg__
 1716 053c 1FAE      		std Y+63,__zero_reg__
 1717 053e 6197      		sbiw r28,77-60
 1718 0540 6596      		adiw r28,81-60
 1719 0542 1CAE      		std Y+60,__zero_reg__
 1720 0544 1DAE      		std Y+61,__zero_reg__
 1721 0546 1EAE      		std Y+62,__zero_reg__
 1722 0548 1FAE      		std Y+63,__zero_reg__
 1723 054a 6597      		sbiw r28,81-60
 1724 054c 6996      		adiw r28,85-60
 1725 054e 1CAE      		std Y+60,__zero_reg__
 1726 0550 1DAE      		std Y+61,__zero_reg__
 1727 0552 1EAE      		std Y+62,__zero_reg__
 1728 0554 1FAE      		std Y+63,__zero_reg__
 1729 0556 6997      		sbiw r28,85-60
 1730 0558 CB54      		subi r28,lo8(-437)
 1731 055a DE4F      		sbci r29,hi8(-437)
 1732 055c 8881      		ld r24,Y
 1733 055e 9981      		ldd r25,Y+1
 1734 0560 AA81      		ldd r26,Y+2
 1735 0562 BB81      		ldd r27,Y+3
 1736 0564 C55B      		subi r28,lo8(437)
 1737 0566 D140      		sbci r29,hi8(437)
 1738 0568 6D96      		adiw r28,89-60
 1739 056a 8CAF      		std Y+60,r24
 1740 056c 9DAF      		std Y+61,r25
 1741 056e AEAF      		std Y+62,r26
 1742 0570 BFAF      		std Y+63,r27
 1743 0572 6D97      		sbiw r28,89-60
 1744 0574 A196      		adiw r28,93-60
 1745 0576 1CAE      		std Y+60,__zero_reg__
 1746 0578 1DAE      		std Y+61,__zero_reg__
 1747 057a 1EAE      		std Y+62,__zero_reg__
 1748 057c 1FAE      		std Y+63,__zero_reg__
 1749 057e A197      		sbiw r28,93-60
 1750 0580 A596      		adiw r28,97-60
 1751 0582 1CAE      		std Y+60,__zero_reg__
 1752 0584 1DAE      		std Y+61,__zero_reg__
 1753 0586 1EAE      		std Y+62,__zero_reg__
 1754 0588 1FAE      		std Y+63,__zero_reg__
 1755 058a A597      		sbiw r28,97-60
 1756 058c A996      		adiw r28,101-60
 1757 058e 1CAE      		std Y+60,__zero_reg__
 1758 0590 1DAE      		std Y+61,__zero_reg__
 1759 0592 1EAE      		std Y+62,__zero_reg__
 1760 0594 1FAE      		std Y+63,__zero_reg__
 1761 0596 A997      		sbiw r28,101-60
 1762 0598 C754      		subi r28,lo8(-441)
 1763 059a DE4F      		sbci r29,hi8(-441)
 1764 059c 8881      		ld r24,Y
 1765 059e 9981      		ldd r25,Y+1
 1766 05a0 AA81      		ldd r26,Y+2
 1767 05a2 BB81      		ldd r27,Y+3
 1768 05a4 C95B      		subi r28,lo8(441)
 1769 05a6 D140      		sbci r29,hi8(441)
 1770 05a8 AD96      		adiw r28,105-60
 1771 05aa 8CAF      		std Y+60,r24
 1772 05ac 9DAF      		std Y+61,r25
 1773 05ae AEAF      		std Y+62,r26
 1774 05b0 BFAF      		std Y+63,r27
 1775 05b2 AD97      		sbiw r28,105-60
 157:../src/localization.c **** 
 1776               		.loc 1 157 0
 1777 05b4 BE01      		movw r22,r28
 1778 05b6 6359      		subi r22,-109
 1779 05b8 7F4F      		sbci r23,-1
 1780 05ba CE01      		movw r24,r28
 1781 05bc 8596      		adiw r24,37
 1782 05be 0E94 0000 		call matrixTranspose
 1783               	.LVL128:
 159:../src/localization.c **** 	for(uint8_t i=0;i<3;i++){
 1784               		.loc 1 159 0
 1785 05c2 84E2      		ldi r24,lo8(36)
 1786 05c4 E0E0      		ldi r30,lo8(.LC0)
 1787 05c6 F0E0      		ldi r31,hi8(.LC0)
 1788 05c8 DE01      		movw r26,r28
 1789 05ca 1196      		adiw r26,1
 1790               		0:
 1791 05cc 0190      		ld r0,Z+
 1792 05ce 0D92      		st X+,r0
 1793 05d0 8A95      		dec r24
 1794 05d2 01F4      		brne 0b
 1795               	.LVL129:
 1796 05d4 8E01      		movw r16,r28
 1797               	.LVL130:
 1798 05d6 075B      		subi r16,-73
 1799 05d8 1F4F      		sbci r17,-1
 1800 05da FE01      		movw r30,r28
 1801 05dc 3196      		adiw r30,1
 1802 05de 7F01      		movw r14,r30
 1803               	.LVL131:
 1804 05e0 5801      		movw r10,r16
 1805 05e2 F0E3      		ldi r31,48
 1806 05e4 AF0E      		add r10,r31
 1807 05e6 B11C      		adc r11,__zero_reg__
 1808               	.LVL132:
 1809               	.L41:
 1810               	.LBB205:
 161:../src/localization.c **** 	}
 1811               		.loc 1 161 0
 1812 05e8 20E0      		ldi r18,0
 1813 05ea 30E0      		ldi r19,0
 1814 05ec 40E8      		ldi r20,lo8(-128)
 1815 05ee 5FE3      		ldi r21,lo8(63)
 1816 05f0 C201      		movw r24,r4
 1817 05f2 B101      		movw r22,r2
 1818 05f4 0E94 0000 		call __gtsf2
 1819               	.LVL133:
 1820 05f8 1816      		cp __zero_reg__,r24
 1821 05fa 04F0      		brlt .+2
 1822 05fc 00C0      		rjmp .L71
 1823               	.L39:
 1824 05fe F701      		movw r30,r14
 1825 0600 2082      		st Z,r2
 1826 0602 3182      		std Z+1,r3
 1827 0604 4282      		std Z+2,r4
 1828 0606 5382      		std Z+3,r5
 1829 0608 005F      		subi r16,-16
 1830 060a 1F4F      		sbci r17,-1
 1831 060c F0E1      		ldi r31,16
 1832 060e EF0E      		add r14,r31
 1833 0610 F11C      		adc r15,__zero_reg__
 160:../src/localization.c **** 		C[i][i] = D[i][i]>1 ? D[i][i] : 1;
 1834               		.loc 1 160 0
 1835 0612 0A15      		cp r16,r10
 1836 0614 1B05      		cpc r17,r11
 1837 0616 01F0      		breq .L40
 1838 0618 F801      		movw r30,r16
 1839 061a 2080      		ld r2,Z
 1840 061c 3180      		ldd r3,Z+1
 1841 061e 4280      		ldd r4,Z+2
 1842 0620 5380      		ldd r5,Z+3
 1843 0622 00C0      		rjmp .L41
 1844               	.LVL134:
 1845               	.L27:
 1846               	.LBE205:
 1847               	.LBE204:
 1848               	.LBE203:
 177:../src/localization.c **** 		return;
 1849               		.loc 1 177 0
 1850 0624 80E0      		ldi r24,lo8(__c.5507)
 1851 0626 90E0      		ldi r25,hi8(__c.5507)
 1852 0628 9F93      		push r25
 1853 062a 8F93      		push r24
 1854 062c 0E94 0000 		call printf_P
 1855               	.LVL135:
 178:../src/localization.c **** 	}
 1856               		.loc 1 178 0
 1857 0630 0F90      		pop __tmp_reg__
 1858 0632 0F90      		pop __tmp_reg__
 1859               	.LVL136:
 1860               	.L23:
 1861               	/* epilogue start */
 217:../src/localization.c **** 
 1862               		.loc 1 217 0
 1863 0634 C850      		subi r28,8
 1864 0636 DE4F      		sbci r29,-2
 1865 0638 CDBF      		out __SP_L__,r28
 1866 063a DEBF      		out __SP_H__,r29
 1867 063c DF91      		pop r29
 1868 063e CF91      		pop r28
 1869 0640 1F91      		pop r17
 1870 0642 0F91      		pop r16
 1871 0644 FF90      		pop r15
 1872 0646 EF90      		pop r14
 1873 0648 DF90      		pop r13
 1874 064a CF90      		pop r12
 1875 064c BF90      		pop r11
 1876 064e AF90      		pop r10
 1877 0650 9F90      		pop r9
 1878 0652 8F90      		pop r8
 1879 0654 7F90      		pop r7
 1880 0656 6F90      		pop r6
 1881 0658 5F90      		pop r5
 1882 065a 4F90      		pop r4
 1883 065c 3F90      		pop r3
 1884 065e 2F90      		pop r2
 1885 0660 0895      		ret
 1886               	.LVL137:
 1887               	.L65:
 1888               	.LBB209:
 1889               	.LBB186:
 1890               	.LBB185:
 1891               	.LBB184:
  74:../include/range_algs.h **** }
 1892               		.loc 2 74 0
 1893 0662 C501      		movw r24,r10
 1894 0664 B401      		movw r22,r8
 1895 0666 0E94 0000 		call __subsf3
 1896               	.LVL138:
 1897 066a 2BED      		ldi r18,lo8(-37)
 1898 066c 3FE0      		ldi r19,lo8(15)
 1899 066e 49EC      		ldi r20,lo8(-55)
 1900 0670 50E4      		ldi r21,lo8(64)
 1901 0672 0E94 0000 		call fmod
 1902               	.LVL139:
 1903 0676 2BED      		ldi r18,lo8(-37)
 1904 0678 3FE0      		ldi r19,lo8(15)
 1905 067a 49E4      		ldi r20,lo8(73)
 1906 067c 50E4      		ldi r21,lo8(64)
 1907 067e 0E94 0000 		call __addsf3
 1908               	.LVL140:
 1909 0682 00C0      		rjmp .L26
 1910               	.LVL141:
 1911               	.L40:
 1912               	.LBE184:
 1913               	.LBE185:
 1914               	.LBE186:
 1915               	.LBE209:
 1916               	.LBB210:
 1917               	.LBB207:
 163:../src/localization.c **** 	matrixMultiply(U, &V, &C);
 1918               		.loc 1 163 0
 1919 0684 AE01      		movw r20,r28
 1920 0686 4350      		subi r20,3
 1921 0688 5F4F      		sbci r21,-1
 1922 068a BE01      		movw r22,r28
 1923 068c 6359      		subi r22,-109
 1924 068e 7F4F      		sbci r23,-1
 1925 0690 CE01      		movw r24,r28
 1926 0692 8F56      		subi r24,111
 1927 0694 9F4F      		sbci r25,-1
 1928 0696 0E94 0000 		call matrixMultiply
 1929               	.LVL142:
 164:../src/localization.c **** 	matrixInplaceMultiply(U, U, &TMP);
 1930               		.loc 1 164 0
 1931 069a AE01      		movw r20,r28
 1932 069c 4F5F      		subi r20,-1
 1933 069e 5F4F      		sbci r21,-1
 1934 06a0 BE01      		movw r22,r28
 1935 06a2 6B5D      		subi r22,-37
 1936 06a4 7F4F      		sbci r23,-1
 1937 06a6 CE01      		movw r24,r28
 1938 06a8 8759      		subi r24,-105
 1939 06aa 9E4F      		sbci r25,-2
 1940 06ac 0E94 0000 		call matrixMultiply
 1941               	.LVL143:
 165:../src/localization.c **** 	matrixInplaceMultiply(U, &S_tr, U);
 1942               		.loc 1 165 0
 1943 06b0 AE01      		movw r20,r28
 1944 06b2 4F56      		subi r20,111
 1945 06b4 5F4F      		sbci r21,-1
 1946 06b6 BE01      		movw r22,r28
 1947 06b8 6759      		subi r22,-105
 1948 06ba 7E4F      		sbci r23,-2
 1949 06bc CB01      		movw r24,r22
 1950 06be 0E94 0000 		call matrixInplaceMultiply
 1951               	.LVL144:
 166:../src/localization.c **** }
 1952               		.loc 1 166 0
 1953 06c2 AE01      		movw r20,r28
 1954 06c4 4759      		subi r20,-105
 1955 06c6 5E4F      		sbci r21,-2
 1956 06c8 BE01      		movw r22,r28
 1957 06ca 6752      		subi r22,39
 1958 06cc 7F4F      		sbci r23,-1
 1959 06ce CA01      		movw r24,r20
 1960 06d0 0E94 0000 		call matrixInplaceMultiply
 1961               	.LVL145:
 1962               	.LBE207:
 1963               	.LBE210:
 199:../src/localization.c **** 			MY_POS_DEBUG_PRINT(" but covar union resulted in non-positive-definite P.\r\n");
 1964               		.loc 1 199 0
 1965 06d4 CE01      		movw r24,r28
 1966 06d6 8759      		subi r24,-105
 1967 06d8 9E4F      		sbci r25,-2
 1968 06da 0E94 0000 		call positiveDefiniteQ
 1969               	.LVL146:
 1970 06de 8823      		tst r24
 1971 06e0 01F4      		brne .+2
 1972 06e2 00C0      		rjmp .L72
 1973               	.L37:
 205:../src/localization.c **** 	myPos.y = myNewPos[1]>8191 ? 8191 : (myNewPos[1]<-8192 ? -8192 : myNewPos[1]);
 1974               		.loc 1 205 0
 1975 06e4 CB52      		subi r28,lo8(-469)
 1976 06e6 DE4F      		sbci r29,hi8(-469)
 1977 06e8 8880      		ld r8,Y
 1978 06ea 9980      		ldd r9,Y+1
 1979 06ec AA80      		ldd r10,Y+2
 1980 06ee BB80      		ldd r11,Y+3
 1981 06f0 C55D      		subi r28,lo8(469)
 1982 06f2 D140      		sbci r29,hi8(469)
 1983 06f4 20E0      		ldi r18,0
 1984 06f6 38EF      		ldi r19,lo8(-8)
 1985 06f8 4FEF      		ldi r20,lo8(-1)
 1986 06fa 55E4      		ldi r21,lo8(69)
 1987 06fc C501      		movw r24,r10
 1988 06fe B401      		movw r22,r8
 1989 0700 0E94 0000 		call __gtsf2
 1990               	.LVL147:
 1991 0704 1816      		cp __zero_reg__,r24
 1992 0706 04F0      		brlt .L49
 205:../src/localization.c **** 	myPos.y = myNewPos[1]>8191 ? 8191 : (myNewPos[1]<-8192 ? -8192 : myNewPos[1]);
 1993               		.loc 1 205 0 is_stmt 0 discriminator 2
 1994 0708 20E0      		ldi r18,0
 1995 070a 30E0      		ldi r19,0
 1996 070c 40E0      		ldi r20,0
 1997 070e 56EC      		ldi r21,lo8(-58)
 1998 0710 C501      		movw r24,r10
 1999 0712 B401      		movw r22,r8
 2000 0714 0E94 0000 		call __ltsf2
 2001               	.LVL148:
 2002 0718 87FF      		sbrs r24,7
 2003 071a 00C0      		rjmp .L73
 205:../src/localization.c **** 	myPos.y = myNewPos[1]>8191 ? 8191 : (myNewPos[1]<-8192 ? -8192 : myNewPos[1]);
 2004               		.loc 1 205 0
 2005 071c 10E0      		ldi r17,0
 2006 071e 00EE      		ldi r16,lo8(-32)
 2007 0720 00C0      		rjmp .L42
 2008               	.LVL149:
 2009               	.L69:
 2010               	.LBB211:
 2011               	.LBB202:
 2012               	.LBB201:
 2013               	.LBB200:
  75:../src/localization.c **** 	return omega;
 2014               		.loc 1 75 0 is_stmt 1
 2015 0722 20E0      		ldi r18,0
 2016 0724 30E0      		ldi r19,0
 2017 0726 A901      		movw r20,r18
 2018 0728 C501      		movw r24,r10
 2019 072a B401      		movw r22,r8
 2020 072c 0E94 0000 		call __ltsf2
 2021               	.LVL150:
 2022 0730 87FF      		sbrs r24,7
 2023 0732 00C0      		rjmp .L33
 2024 0734 812C      		mov r8,__zero_reg__
 2025 0736 912C      		mov r9,__zero_reg__
 2026 0738 5401      		movw r10,r8
 2027               	.LVL151:
 2028 073a 00C0      		rjmp .L33
 2029               	.LVL152:
 2030               	.L71:
 2031               	.LBE200:
 2032               	.LBE201:
 2033               	.LBE202:
 2034               	.LBE211:
 2035               	.LBB212:
 2036               	.LBB208:
 2037               	.LBB206:
 161:../src/localization.c **** 	}
 2038               		.loc 1 161 0
 2039 073c 212C      		mov r2,__zero_reg__
 2040 073e 312C      		mov r3,__zero_reg__
 2041 0740 20E8      		ldi r18,lo8(-128)
 2042 0742 422E      		mov r4,r18
 2043 0744 2FE3      		ldi r18,lo8(63)
 2044 0746 522E      		mov r5,r18
 2045 0748 00C0      		rjmp .L39
 2046               	.LVL153:
 2047               	.L49:
 2048               	.LBE206:
 2049               	.LBE208:
 2050               	.LBE212:
 205:../src/localization.c **** 	myPos.y = myNewPos[1]>8191 ? 8191 : (myNewPos[1]<-8192 ? -8192 : myNewPos[1]);
 2051               		.loc 1 205 0
 2052 074a 1FEF      		ldi r17,lo8(-1)
 2053 074c 0FE1      		ldi r16,lo8(31)
 2054               	.L42:
 205:../src/localization.c **** 	myPos.y = myNewPos[1]>8191 ? 8191 : (myNewPos[1]<-8192 ? -8192 : myNewPos[1]);
 2055               		.loc 1 205 0 is_stmt 0 discriminator 8
 2056 074e 1093 0000 		sts myPos,r17
 2057 0752 0093 0000 		sts myPos+1,r16
 206:../src/localization.c **** 	myPos.o = (rad_to_deg(myNewPos[2]) + 0.5);
 2058               		.loc 1 206 0 is_stmt 1 discriminator 8
 2059 0756 C752      		subi r28,lo8(-473)
 2060 0758 DE4F      		sbci r29,hi8(-473)
 2061 075a 8880      		ld r8,Y
 2062 075c 9980      		ldd r9,Y+1
 2063 075e AA80      		ldd r10,Y+2
 2064 0760 BB80      		ldd r11,Y+3
 2065 0762 C95D      		subi r28,lo8(473)
 2066 0764 D140      		sbci r29,hi8(473)
 2067 0766 20E0      		ldi r18,0
 2068 0768 38EF      		ldi r19,lo8(-8)
 2069 076a 4FEF      		ldi r20,lo8(-1)
 2070 076c 55E4      		ldi r21,lo8(69)
 2071 076e C501      		movw r24,r10
 2072 0770 B401      		movw r22,r8
 2073 0772 0E94 0000 		call __gtsf2
 2074               	.LVL154:
 2075 0776 1816      		cp __zero_reg__,r24
 2076 0778 04F0      		brlt .L51
 206:../src/localization.c **** 	myPos.o = (rad_to_deg(myNewPos[2]) + 0.5);
 2077               		.loc 1 206 0 is_stmt 0 discriminator 2
 2078 077a 20E0      		ldi r18,0
 2079 077c 30E0      		ldi r19,0
 2080 077e 40E0      		ldi r20,0
 2081 0780 56EC      		ldi r21,lo8(-58)
 2082 0782 C501      		movw r24,r10
 2083 0784 B401      		movw r22,r8
 2084 0786 0E94 0000 		call __ltsf2
 2085               	.LVL155:
 2086 078a 87FF      		sbrs r24,7
 2087 078c 00C0      		rjmp .L74
 206:../src/localization.c **** 	myPos.o = (rad_to_deg(myNewPos[2]) + 0.5);
 2088               		.loc 1 206 0
 2089 078e F12C      		mov r15,__zero_reg__
 2090 0790 80EE      		ldi r24,lo8(-32)
 2091 0792 E82E      		mov r14,r24
 2092 0794 00C0      		rjmp .L43
 2093               	.L51:
 2094 0796 FF24      		clr r15
 2095 0798 FA94      		dec r15
 2096 079a 9FE1      		ldi r25,lo8(31)
 2097 079c E92E      		mov r14,r25
 2098               	.L43:
 206:../src/localization.c **** 	myPos.o = (rad_to_deg(myNewPos[2]) + 0.5);
 2099               		.loc 1 206 0 discriminator 8
 2100 079e F092 0000 		sts myPos+2,r15
 2101 07a2 E092 0000 		sts myPos+3,r14
 207:../src/localization.c **** 	MY_POS_DEBUG_PRINT(" giving pos {%d, %d, %d}.\r\n", myPos.x, myPos.y, myPos.o);
 2102               		.loc 1 207 0 is_stmt 1 discriminator 8
 2103 07a6 C352      		subi r28,lo8(-477)
 2104 07a8 DE4F      		sbci r29,hi8(-477)
 2105 07aa 8880      		ld r8,Y
 2106 07ac 9980      		ldd r9,Y+1
 2107 07ae AA80      		ldd r10,Y+2
 2108 07b0 BB80      		ldd r11,Y+3
 2109 07b2 CD5D      		subi r28,lo8(477)
 2110 07b4 D140      		sbci r29,hi8(477)
 2111               	.LVL156:
 2112               	.LBB213:
 2113               	.LBB214:
 2114               	.LBB215:
 2115               	.LBB216:
  74:../include/range_algs.h **** }
 2116               		.loc 2 74 0 discriminator 8
 2117 07b6 20E0      		ldi r18,0
 2118 07b8 30E0      		ldi r19,0
 2119 07ba A901      		movw r20,r18
 2120 07bc C501      		movw r24,r10
 2121 07be B401      		movw r22,r8
 2122 07c0 0E94 0000 		call __gesf2
 2123               	.LVL157:
 2124 07c4 2BED      		ldi r18,lo8(-37)
 2125 07c6 3FE0      		ldi r19,lo8(15)
 2126 07c8 49E4      		ldi r20,lo8(73)
 2127 07ca 50E4      		ldi r21,lo8(64)
 2128 07cc 87FD      		sbrc r24,7
 2129 07ce 00C0      		rjmp .L68
  74:../include/range_algs.h **** }
 2130               		.loc 2 74 0 is_stmt 0
 2131 07d0 C501      		movw r24,r10
 2132 07d2 B401      		movw r22,r8
 2133 07d4 0E94 0000 		call __addsf3
 2134               	.LVL158:
 2135 07d8 2BED      		ldi r18,lo8(-37)
 2136 07da 3FE0      		ldi r19,lo8(15)
 2137 07dc 49EC      		ldi r20,lo8(-55)
 2138 07de 50E4      		ldi r21,lo8(64)
 2139 07e0 0E94 0000 		call fmod
 2140               	.LVL159:
 2141 07e4 2BED      		ldi r18,lo8(-37)
 2142 07e6 3FE0      		ldi r19,lo8(15)
 2143 07e8 49E4      		ldi r20,lo8(73)
 2144 07ea 50E4      		ldi r21,lo8(64)
 2145 07ec 0E94 0000 		call __subsf3
 2146               	.LVL160:
 2147               	.L46:
 2148               	.LBE216:
 2149               	.LBE215:
 2150               	.LBE214:
 2151               	.LBE213:
 207:../src/localization.c **** 	MY_POS_DEBUG_PRINT(" giving pos {%d, %d, %d}.\r\n", myPos.x, myPos.y, myPos.o);
 2152               		.loc 1 207 0 is_stmt 1
 2153 07f0 2BED      		ldi r18,lo8(-37)
 2154 07f2 3FE0      		ldi r19,lo8(15)
 2155 07f4 49E4      		ldi r20,lo8(73)
 2156 07f6 50E4      		ldi r21,lo8(64)
 2157 07f8 0E94 0000 		call __divsf3
 2158               	.LVL161:
 2159 07fc 20E0      		ldi r18,0
 2160 07fe 30E0      		ldi r19,0
 2161 0800 44E3      		ldi r20,lo8(52)
 2162 0802 53E4      		ldi r21,lo8(67)
 2163 0804 0E94 0000 		call __mulsf3
 2164               	.LVL162:
 2165 0808 20E0      		ldi r18,0
 2166 080a 30E0      		ldi r19,0
 2167 080c 40E0      		ldi r20,0
 2168 080e 5FE3      		ldi r21,lo8(63)
 2169 0810 0E94 0000 		call __addsf3
 2170               	.LVL163:
 2171 0814 0E94 0000 		call __fixsfsi
 2172               	.LVL164:
 2173 0818 6093 0000 		sts myPos+4,r22
 2174 081c 7093 0000 		sts myPos+5,r23
 208:../src/localization.c **** 	MY_POS_DEBUG_PRINT("\tMahalanobis Distance: %f\r\n", mDist);
 2175               		.loc 1 208 0
 2176 0820 7F93      		push r23
 2177 0822 6F93      		push r22
 2178 0824 EF92      		push r14
 2179 0826 FF92      		push r15
 2180 0828 0F93      		push r16
 2181 082a 1F93      		push r17
 2182 082c 80E0      		ldi r24,lo8(__c.5520)
 2183 082e 90E0      		ldi r25,hi8(__c.5520)
 2184 0830 9F93      		push r25
 2185 0832 8F93      		push r24
 2186 0834 0E94 0000 		call printf_P
 2187               	.LVL165:
 209:../src/localization.c **** 	#if defined(MY_POS_DEBUG_MODE) && defined(COVAR_DEBUG_MODE)
 2188               		.loc 1 209 0
 2189 0838 6F92      		push r6
 2190 083a 7F92      		push r7
 2191 083c CF92      		push r12
 2192 083e DF92      		push r13
 2193 0840 80E0      		ldi r24,lo8(__c.5522)
 2194 0842 90E0      		ldi r25,hi8(__c.5522)
 2195 0844 9F93      		push r25
 2196 0846 8F93      		push r24
 2197 0848 0E94 0000 		call printf_P
 2198               	.LVL166:
 216:../src/localization.c **** }
 2199               		.loc 1 216 0
 2200 084c 60E0      		ldi r22,lo8(myPosCovar)
 2201 084e 70E0      		ldi r23,hi8(myPosCovar)
 2202 0850 CE01      		movw r24,r28
 2203 0852 8759      		subi r24,-105
 2204 0854 9E4F      		sbci r25,-2
 2205 0856 0E94 0000 		call compressP
 2206               	.LVL167:
 2207 085a CDBF      		out __SP_L__,r28
 2208 085c DEBF      		out __SP_H__,r29
 2209 085e 00C0      		rjmp .L23
 2210               	.LVL168:
 2211               	.L70:
 193:../src/localization.c **** 		return;
 2212               		.loc 1 193 0
 2213 0860 6F92      		push r6
 2214 0862 7F92      		push r7
 2215 0864 CF92      		push r12
 2216 0866 DF92      		push r13
 2217 0868 80E0      		ldi r24,lo8(__c.5516)
 2218 086a 90E0      		ldi r25,hi8(__c.5516)
 2219 086c 9F93      		push r25
 2220 086e 8F93      		push r24
 2221 0870 0E94 0000 		call printf_P
 2222               	.LVL169:
 194:../src/localization.c **** 		}else if(mDist>1.0){
 2223               		.loc 1 194 0
 2224 0874 0F90      		pop __tmp_reg__
 2225 0876 0F90      		pop __tmp_reg__
 2226 0878 0F90      		pop __tmp_reg__
 2227 087a 0F90      		pop __tmp_reg__
 2228 087c 0F90      		pop __tmp_reg__
 2229 087e 0F90      		pop __tmp_reg__
 2230 0880 00C0      		rjmp .L23
 2231               	.LVL170:
 2232               	.L66:
 2233               	.LBB220:
 2234               	.LBB193:
 2235               	.LBB192:
 2236               	.LBB191:
  74:../include/range_algs.h **** }
 2237               		.loc 2 74 0
 2238 0882 C501      		movw r24,r10
 2239 0884 B401      		movw r22,r8
 2240 0886 0E94 0000 		call __subsf3
 2241               	.LVL171:
 2242 088a 2BED      		ldi r18,lo8(-37)
 2243 088c 3FE0      		ldi r19,lo8(15)
 2244 088e 49EC      		ldi r20,lo8(-55)
 2245 0890 50E4      		ldi r21,lo8(64)
 2246 0892 0E94 0000 		call fmod
 2247               	.LVL172:
 2248 0896 2BED      		ldi r18,lo8(-37)
 2249 0898 3FE0      		ldi r19,lo8(15)
 2250 089a 49E4      		ldi r20,lo8(73)
 2251 089c 50E4      		ldi r21,lo8(64)
 2252 089e 0E94 0000 		call __addsf3
 2253               	.LVL173:
 2254 08a2 00C0      		rjmp .L32
 2255               	.LVL174:
 2256               	.L68:
 2257               	.LBE191:
 2258               	.LBE192:
 2259               	.LBE193:
 2260               	.LBE220:
 2261               	.LBB221:
 2262               	.LBB219:
 2263               	.LBB218:
 2264               	.LBB217:
 2265 08a4 C501      		movw r24,r10
 2266 08a6 B401      		movw r22,r8
 2267 08a8 0E94 0000 		call __subsf3
 2268               	.LVL175:
 2269 08ac 2BED      		ldi r18,lo8(-37)
 2270 08ae 3FE0      		ldi r19,lo8(15)
 2271 08b0 49EC      		ldi r20,lo8(-55)
 2272 08b2 50E4      		ldi r21,lo8(64)
 2273 08b4 0E94 0000 		call fmod
 2274               	.LVL176:
 2275 08b8 2BED      		ldi r18,lo8(-37)
 2276 08ba 3FE0      		ldi r19,lo8(15)
 2277 08bc 49E4      		ldi r20,lo8(73)
 2278 08be 50E4      		ldi r21,lo8(64)
 2279 08c0 0E94 0000 		call __addsf3
 2280               	.LVL177:
 2281 08c4 00C0      		rjmp .L46
 2282               	.LVL178:
 2283               	.L74:
 2284               	.LBE217:
 2285               	.LBE218:
 2286               	.LBE219:
 2287               	.LBE221:
 206:../src/localization.c **** 	myPos.o = (rad_to_deg(myNewPos[2]) + 0.5);
 2288               		.loc 1 206 0 discriminator 5
 2289 08c6 C501      		movw r24,r10
 2290 08c8 B401      		movw r22,r8
 2291 08ca 0E94 0000 		call __fixsfsi
 2292               	.LVL179:
 2293 08ce F62E      		mov r15,r22
 2294 08d0 E72E      		mov r14,r23
 2295 08d2 00C0      		rjmp .L43
 2296               	.L73:
 205:../src/localization.c **** 	myPos.y = myNewPos[1]>8191 ? 8191 : (myNewPos[1]<-8192 ? -8192 : myNewPos[1]);
 2297               		.loc 1 205 0 discriminator 5
 2298 08d4 C501      		movw r24,r10
 2299 08d6 B401      		movw r22,r8
 2300 08d8 0E94 0000 		call __fixsfsi
 2301               	.LVL180:
 2302 08dc 162F      		mov r17,r22
 2303 08de 072F      		mov r16,r23
 2304 08e0 00C0      		rjmp .L42
 2305               	.L72:
 200:../src/localization.c **** 			return;
 2306               		.loc 1 200 0
 2307 08e2 80E0      		ldi r24,lo8(__c.5518)
 2308 08e4 90E0      		ldi r25,hi8(__c.5518)
 2309 08e6 9F93      		push r25
 2310 08e8 8F93      		push r24
 2311 08ea 0E94 0000 		call printf_P
 2312               	.LVL181:
 201:../src/localization.c **** 		}
 2313               		.loc 1 201 0
 2314 08ee 0F90      		pop __tmp_reg__
 2315 08f0 0F90      		pop __tmp_reg__
 2316 08f2 00C0      		rjmp .L23
 2317               		.cfi_endproc
 2318               	.LFE69:
 2320               	.global	__lesf2
 2321               		.section	.text.getMeasCovar.isra.3,"ax",@progbits
 2323               	getMeasCovar.isra.3:
 2324               	.LFB89:
 231:../src/localization.c **** 	static const Matrix* start;
 2325               		.loc 1 231 0
 2326               		.cfi_startproc
 2327               	.LVL182:
 2328 0000 4F92      		push r4
 2329               	.LCFI64:
 2330               		.cfi_def_cfa_offset 4
 2331               		.cfi_offset 4, -3
 2332 0002 5F92      		push r5
 2333               	.LCFI65:
 2334               		.cfi_def_cfa_offset 5
 2335               		.cfi_offset 5, -4
 2336 0004 6F92      		push r6
 2337               	.LCFI66:
 2338               		.cfi_def_cfa_offset 6
 2339               		.cfi_offset 6, -5
 2340 0006 7F92      		push r7
 2341               	.LCFI67:
 2342               		.cfi_def_cfa_offset 7
 2343               		.cfi_offset 7, -6
 2344 0008 8F92      		push r8
 2345               	.LCFI68:
 2346               		.cfi_def_cfa_offset 8
 2347               		.cfi_offset 8, -7
 2348 000a 9F92      		push r9
 2349               	.LCFI69:
 2350               		.cfi_def_cfa_offset 9
 2351               		.cfi_offset 9, -8
 2352 000c AF92      		push r10
 2353               	.LCFI70:
 2354               		.cfi_def_cfa_offset 10
 2355               		.cfi_offset 10, -9
 2356 000e BF92      		push r11
 2357               	.LCFI71:
 2358               		.cfi_def_cfa_offset 11
 2359               		.cfi_offset 11, -10
 2360 0010 CF92      		push r12
 2361               	.LCFI72:
 2362               		.cfi_def_cfa_offset 12
 2363               		.cfi_offset 12, -11
 2364 0012 DF92      		push r13
 2365               	.LCFI73:
 2366               		.cfi_def_cfa_offset 13
 2367               		.cfi_offset 13, -12
 2368 0014 EF92      		push r14
 2369               	.LCFI74:
 2370               		.cfi_def_cfa_offset 14
 2371               		.cfi_offset 14, -13
 2372 0016 FF92      		push r15
 2373               	.LCFI75:
 2374               		.cfi_def_cfa_offset 15
 2375               		.cfi_offset 15, -14
 2376 0018 0F93      		push r16
 2377               	.LCFI76:
 2378               		.cfi_def_cfa_offset 16
 2379               		.cfi_offset 16, -15
 2380 001a 1F93      		push r17
 2381               	.LCFI77:
 2382               		.cfi_def_cfa_offset 17
 2383               		.cfi_offset 17, -16
 2384 001c CF93      		push r28
 2385               	.LCFI78:
 2386               		.cfi_def_cfa_offset 18
 2387               		.cfi_offset 28, -17
 2388 001e DF93      		push r29
 2389               	.LCFI79:
 2390               		.cfi_def_cfa_offset 19
 2391               		.cfi_offset 29, -18
 2392 0020 CDB7      		in r28,__SP_L__
 2393 0022 DEB7      		in r29,__SP_H__
 2394               	.LCFI80:
 2395               		.cfi_def_cfa_register 28
 2396 0024 A497      		sbiw r28,36
 2397               	.LCFI81:
 2398               		.cfi_def_cfa_offset 55
 2399 0026 CDBF      		out __SP_L__,r28
 2400 0028 DEBF      		out __SP_H__,r29
 2401               	/* prologue: function */
 2402               	/* frame size = 36 */
 2403               	/* stack size = 52 */
 2404               	.L__stack_usage = 52
 2405 002a 8C01      		movw r16,r24
 2406 002c 5B01      		movw r10,r22
 2407 002e 4A01      		movw r8,r20
 2408               	.LVL183:
 233:../src/localization.c **** 		start = &measCovarClose;
 2409               		.loc 1 233 0
 2410 0030 FB01      		movw r30,r22
 2411 0032 C080      		ld r12,Z
 2412 0034 D180      		ldd r13,Z+1
 2413 0036 E280      		ldd r14,Z+2
 2414 0038 F380      		ldd r15,Z+3
 2415 003a 20E0      		ldi r18,0
 2416 003c 30E0      		ldi r19,0
 2417 003e 40EA      		ldi r20,lo8(-96)
 2418 0040 52E4      		ldi r21,lo8(66)
 2419 0042 C701      		movw r24,r14
 2420 0044 B601      		movw r22,r12
 2421 0046 0E94 0000 		call __lesf2
 2422               	.LVL184:
 2423 004a 1816      		cp __zero_reg__,r24
 2424 004c 04F0      		brlt .+2
 2425 004e 00C0      		rjmp .L85
 235:../src/localization.c **** 		start = &measCovarMed;
 2426               		.loc 1 235 0
 2427 0050 20E0      		ldi r18,0
 2428 0052 30E0      		ldi r19,0
 2429 0054 4CE0      		ldi r20,lo8(12)
 2430 0056 53E4      		ldi r21,lo8(67)
 2431 0058 C701      		movw r24,r14
 2432 005a B601      		movw r22,r12
 2433 005c 0E94 0000 		call __lesf2
 2434               	.LVL185:
 2435 0060 1816      		cp __zero_reg__,r24
 2436 0062 04F0      		brlt .+2
 2437 0064 00C0      		rjmp .L86
 238:../src/localization.c **** 	}
 2438               		.loc 1 238 0
 2439 0066 80E0      		ldi r24,lo8(measCovarFar)
 2440 0068 90E0      		ldi r25,hi8(measCovarFar)
 2441 006a 8093 0000 		sts start.5528,r24
 2442 006e 9093 0000 		sts start.5528+1,r25
 2443 0072 BC01      		movw r22,r24
 2444               	.L78:
 240:../src/localization.c **** 	Matrix H;
 2445               		.loc 1 240 0
 2446 0074 C801      		movw r24,r16
 2447 0076 0E94 0000 		call matrixCopy
 2448               	.LVL186:
 242:../src/localization.c **** 	float sinO = sin((*meas)[1]);
 2449               		.loc 1 242 0
 2450 007a F401      		movw r30,r8
 2451 007c 4080      		ld r4,Z
 2452 007e 5180      		ldd r5,Z+1
 2453 0080 6280      		ldd r6,Z+2
 2454 0082 7380      		ldd r7,Z+3
 2455 0084 C301      		movw r24,r6
 2456 0086 B201      		movw r22,r4
 2457 0088 0E94 0000 		call cos
 2458               	.LVL187:
 2459 008c 6B01      		movw r12,r22
 2460 008e 7C01      		movw r14,r24
 2461               	.LVL188:
 243:../src/localization.c **** 	H[0][0] = cosO;    H[0][1] = -((*meas)[0])*sinO;    H[0][2] = 0;
 2462               		.loc 1 243 0
 2463 0090 C301      		movw r24,r6
 2464 0092 B201      		movw r22,r4
 2465 0094 0E94 0000 		call sin
 2466               	.LVL189:
 2467 0098 2B01      		movw r4,r22
 2468 009a 3C01      		movw r6,r24
 2469               	.LVL190:
 244:../src/localization.c **** 	H[1][0] = sinO;    H[1][1] =  ((*meas)[0])*cosO;    H[1][2] = 0;
 2470               		.loc 1 244 0
 2471 009c C982      		std Y+1,r12
 2472 009e DA82      		std Y+2,r13
 2473 00a0 EB82      		std Y+3,r14
 2474 00a2 FC82      		std Y+4,r15
 2475 00a4 F501      		movw r30,r10
 2476 00a6 8080      		ld r8,Z
 2477 00a8 9180      		ldd r9,Z+1
 2478 00aa A280      		ldd r10,Z+2
 2479 00ac B380      		ldd r11,Z+3
 2480 00ae C501      		movw r24,r10
 2481 00b0 B401      		movw r22,r8
 2482 00b2 9058      		subi r25,0x80
 2483 00b4 A301      		movw r20,r6
 2484 00b6 9201      		movw r18,r4
 2485 00b8 0E94 0000 		call __mulsf3
 2486               	.LVL191:
 2487 00bc 6D83      		std Y+5,r22
 2488 00be 7E83      		std Y+6,r23
 2489 00c0 8F83      		std Y+7,r24
 2490 00c2 9887      		std Y+8,r25
 2491 00c4 1986      		std Y+9,__zero_reg__
 2492 00c6 1A86      		std Y+10,__zero_reg__
 2493 00c8 1B86      		std Y+11,__zero_reg__
 2494 00ca 1C86      		std Y+12,__zero_reg__
 245:../src/localization.c **** 	H[2][0] =    0;    H[2][1] =                  0;    H[2][2] = 1;
 2495               		.loc 1 245 0
 2496 00cc 4D86      		std Y+13,r4
 2497 00ce 5E86      		std Y+14,r5
 2498 00d0 6F86      		std Y+15,r6
 2499 00d2 788A      		std Y+16,r7
 2500 00d4 A501      		movw r20,r10
 2501 00d6 9401      		movw r18,r8
 2502 00d8 C701      		movw r24,r14
 2503 00da B601      		movw r22,r12
 2504 00dc 0E94 0000 		call __mulsf3
 2505               	.LVL192:
 2506 00e0 698B      		std Y+17,r22
 2507 00e2 7A8B      		std Y+18,r23
 2508 00e4 8B8B      		std Y+19,r24
 2509 00e6 9C8B      		std Y+20,r25
 2510 00e8 1D8A      		std Y+21,__zero_reg__
 2511 00ea 1E8A      		std Y+22,__zero_reg__
 2512 00ec 1F8A      		std Y+23,__zero_reg__
 2513 00ee 188E      		std Y+24,__zero_reg__
 246:../src/localization.c **** 	matrixInplaceMultiply(R, &H, R);
 2514               		.loc 1 246 0
 2515 00f0 198E      		std Y+25,__zero_reg__
 2516 00f2 1A8E      		std Y+26,__zero_reg__
 2517 00f4 1B8E      		std Y+27,__zero_reg__
 2518 00f6 1C8E      		std Y+28,__zero_reg__
 2519 00f8 1D8E      		std Y+29,__zero_reg__
 2520 00fa 1E8E      		std Y+30,__zero_reg__
 2521 00fc 1F8E      		std Y+31,__zero_reg__
 2522 00fe 18A2      		std Y+32,__zero_reg__
 2523 0100 80E0      		ldi r24,0
 2524 0102 90E0      		ldi r25,0
 2525 0104 A0E8      		ldi r26,lo8(-128)
 2526 0106 BFE3      		ldi r27,lo8(63)
 2527 0108 89A3      		std Y+33,r24
 2528 010a 9AA3      		std Y+34,r25
 2529 010c ABA3      		std Y+35,r26
 2530 010e BCA3      		std Y+36,r27
 247:../src/localization.c **** 	matrixInplaceTranspose(&H);
 2531               		.loc 1 247 0
 2532 0110 A801      		movw r20,r16
 2533 0112 BE01      		movw r22,r28
 2534 0114 6F5F      		subi r22,-1
 2535 0116 7F4F      		sbci r23,-1
 2536 0118 C801      		movw r24,r16
 2537 011a 0E94 0000 		call matrixInplaceMultiply
 2538               	.LVL193:
 248:../src/localization.c **** 	matrixInplaceMultiply(R, R, &H);
 2539               		.loc 1 248 0
 2540 011e CE01      		movw r24,r28
 2541 0120 0196      		adiw r24,1
 2542 0122 0E94 0000 		call matrixInplaceTranspose
 2543               	.LVL194:
 249:../src/localization.c **** }
 2544               		.loc 1 249 0
 2545 0126 AE01      		movw r20,r28
 2546 0128 4F5F      		subi r20,-1
 2547 012a 5F4F      		sbci r21,-1
 2548 012c B801      		movw r22,r16
 2549 012e C801      		movw r24,r16
 2550 0130 0E94 0000 		call matrixInplaceMultiply
 2551               	.LVL195:
 2552               	/* epilogue start */
 250:../src/localization.c **** 
 2553               		.loc 1 250 0
 2554 0134 A496      		adiw r28,36
 2555 0136 CDBF      		out __SP_L__,r28
 2556 0138 DEBF      		out __SP_H__,r29
 2557 013a DF91      		pop r29
 2558 013c CF91      		pop r28
 2559 013e 1F91      		pop r17
 2560 0140 0F91      		pop r16
 2561               	.LVL196:
 2562 0142 FF90      		pop r15
 2563 0144 EF90      		pop r14
 2564 0146 DF90      		pop r13
 2565 0148 CF90      		pop r12
 2566               	.LVL197:
 2567 014a BF90      		pop r11
 2568 014c AF90      		pop r10
 2569 014e 9F90      		pop r9
 2570 0150 8F90      		pop r8
 2571 0152 7F90      		pop r7
 2572 0154 6F90      		pop r6
 2573 0156 5F90      		pop r5
 2574 0158 4F90      		pop r4
 2575               	.LVL198:
 2576 015a 0895      		ret
 2577               	.LVL199:
 2578               	.L86:
 236:../src/localization.c **** 	}else{
 2579               		.loc 1 236 0
 2580 015c 80E0      		ldi r24,lo8(measCovarMed)
 2581 015e 90E0      		ldi r25,hi8(measCovarMed)
 2582 0160 8093 0000 		sts start.5528,r24
 2583 0164 9093 0000 		sts start.5528+1,r25
 2584 0168 BC01      		movw r22,r24
 2585 016a 00C0      		rjmp .L78
 2586               	.L85:
 234:../src/localization.c **** 	}else if((*meas)[0]<=140){
 2587               		.loc 1 234 0
 2588 016c 80E0      		ldi r24,lo8(measCovarClose)
 2589 016e 90E0      		ldi r25,hi8(measCovarClose)
 2590 0170 8093 0000 		sts start.5528,r24
 2591 0174 9093 0000 		sts start.5528+1,r25
 2592 0178 BC01      		movw r22,r24
 2593 017a 00C0      		rjmp .L78
 2594               		.cfi_endproc
 2595               	.LFE89:
 2597               		.section	.text.sendBotMeasMsg,"ax",@progbits
 2598               	.global	sendBotMeasMsg
 2600               	sendBotMeasMsg:
 2601               	.LFB80:
 319:../src/localization.c **** 
 320:../src/localization.c **** /*
 321:../src/localization.c ****  * dir is movement direction, as used in the 'walk' function.
 322:../src/localization.c ****  * mag is movement magnitude, as used in the 'walk' function.
 323:../src/localization.c ****  *         (units of mm for dirs 0-5; degrees for dirs 6-7)
 324:../src/localization.c ****  * CITE:
 325:../src/localization.c ****  * "Decentralized Multi-robot Cooperative Localization using Covariance Intersection"
 326:../src/localization.c ****  * by Luic C. Carillo-Arce et. al.
 327:../src/localization.c ****  */
 328:../src/localization.c **** void updateForMovement(__attribute__((unused)) uint8_t dir, __attribute__((unused)) uint16_t mag){
 329:../src/localization.c **** 	__attribute__((unused)) Vector curX = {myPos.x, myPos.y, deg_to_rad(myPos.o)};
 330:../src/localization.c **** 	__attribute__((unused)) Matrix curP;
 331:../src/localization.c **** 	decompressP(&curP, &myPosCovar);
 332:../src/localization.c **** 	__attribute__((unused)) Vector newX;
 333:../src/localization.c **** 	//TODO: Implement function 'f', which calculates newX based on curX, movement dir, and movement ma
 334:../src/localization.c **** 	__attribute__((unused)) Matrix Phi;
 335:../src/localization.c **** 	//TODO: Calculate Phi, the gradient of 'f' w.r.t. changes in the robot's current position.
 336:../src/localization.c **** 	__attribute__((unused)) Matrix G;
 337:../src/localization.c **** 	//TODO: Calculate G, the gradient of 'f' w.r.t. errors in the robot's motion.
 338:../src/localization.c **** 	__attribute__((unused)) Matrix Q;
 339:../src/localization.c **** 	//TODO: Hard-Code Q, our movement's covariance. Probably separately for each direction???
 340:../src/localization.c **** 	__attribute__((unused)) Matrix newP;
 341:../src/localization.c **** 	//newP = Phi.curP.(tr(Phi)) + G.Q.(tr(G))
 342:../src/localization.c **** }
 343:../src/localization.c **** 
 344:../src/localization.c **** /*
 345:../src/localization.c ****  * This function takes a measurement of another droplet and computes an estimated position for that
 346:../src/localization.c ****  * droplet based on this droplet's position and position covariance, and the measurement.
 347:../src/localization.c ****  * It then prepares a message to be sent to the measured droplet, conveying this information.
 348:../src/localization.c ****  */
 349:../src/localization.c **** void useRNBmeas(id_t id, uint16_t r, int16_t b, int16_t h){
 350:../src/localization.c **** 	if(!POS_DEFINED(&myPos)){
 351:../src/localization.c **** 		POS_CALC_DEBUG_PRINT("Can't adjust others' positions until I know where I am.\r\n");
 352:../src/localization.c **** 		return;
 353:../src/localization.c **** 	}
 354:../src/localization.c **** 	Vector x_me = {myPos.x, myPos.y, deg_to_rad(myPos.o)};
 355:../src/localization.c **** 	Vector meas = {r, deg_to_rad(b+90), deg_to_rad(h+90)};
 356:../src/localization.c **** 	Matrix myP;
 357:../src/localization.c **** 	decompressP(&myP, &myPosCovar);
 358:../src/localization.c **** 	Matrix G;
 359:../src/localization.c **** 	populateGammaMatrix(&G, &x_me);
 360:../src/localization.c **** 	Matrix Gtp;
 361:../src/localization.c **** 	matrixTranspose(&Gtp, &G);
 362:../src/localization.c **** 	Vector z;
 363:../src/localization.c **** 	calcRelativePose(&z, &meas);
 364:../src/localization.c **** 	Matrix R;
 365:../src/localization.c **** 	getMeasCovar(&R, &meas);
 366:../src/localization.c **** 
 367:../src/localization.c **** 	//yourX = myX + G.z
 368:../src/localization.c **** 	Vector x_you;
 369:../src/localization.c **** 	matrixTimesVector(&x_you, &G, &z);
 370:../src/localization.c **** 	vectorAdd(&x_you, &x_me, &x_you);
 371:../src/localization.c **** 	Matrix H;
 372:../src/localization.c **** 	populateHMatrix(&H, &x_me, &x_you);
 373:../src/localization.c **** 	Matrix tmp;
 374:../src/localization.c **** 	Matrix yourP;
 375:../src/localization.c **** 
 376:../src/localization.c **** 	//yourP = H.myP.tp(H) + G.R.tp(G)
 377:../src/localization.c **** 	matrixMultiply(&tmp, &G, &R);
 378:../src/localization.c **** 	matrixMultiply(&yourP, &tmp, &Gtp); //now yourP is G.R.tp(G)
 379:../src/localization.c **** 	matrixMultiply(&tmp, &H, &myP);
 380:../src/localization.c **** 	matrixInplaceTranspose(&H);
 381:../src/localization.c **** 	matrixInplaceMultiply(&tmp, &tmp, &H); //now tmp is H.myP.tp(H)
 382:../src/localization.c **** 	matrixAdd(&yourP, &tmp, &yourP);
 383:../src/localization.c **** 	
 384:../src/localization.c **** 	if(positiveDefiniteQ(&yourP)){
 385:../src/localization.c **** 		POS_CALC_DEBUG_PRINT("\t%04X @ {%6.1f, %6.1f, % 5.0f} from {% 4d, % 4d, % 4d}\r\n", id, x_you[0],
 386:../src/localization.c **** 		#if defined(POS_CALC_DEBUG_MODE) && defined(COVAR_DEBUG_MODE)
 387:../src/localization.c **** 		POS_CALC_DEBUG_PRINT("Calc'd Covar:\r\n");
 388:../src/localization.c **** 		printMatrixMathematica(&yourP);
 389:../src/localization.c **** 		#endif
 390:../src/localization.c **** 		BotPos pos;
 391:../src/localization.c **** 		pos.x = x_you[0]>8191 ? 8191 : (x_you[0]<-8192 ? -8192 : x_you[0]);
 392:../src/localization.c **** 		pos.y = x_you[1]>8191 ? 8191 : (x_you[1]<-8192 ? -8192 : x_you[1]);
 393:../src/localization.c **** 		pos.o = (rad_to_deg(x_you[2]-M_PI_2)+0.5);
 394:../src/localization.c **** 		DensePosCovar covar;
 395:../src/localization.c **** 		compressP(&yourP, &covar);
 396:../src/localization.c **** 		prepBotMeasMsg(id, r, b, &pos, &covar);
 397:../src/localization.c **** 	}
 398:../src/localization.c **** }
 399:../src/localization.c **** 
 400:../src/localization.c **** //Takes all of the information needed for a botMeasMsg and packs it up in to a BotMeasMsgNode,
 401:../src/localization.c **** //then calls sendBotMeasMsg with it.
 402:../src/localization.c **** static void prepBotMeasMsg(id_t id, uint16_t r, int16_t b, BotPos* pos, DensePosCovar* covar){ //i:
 403:../src/localization.c **** 	BotMeasMsgNode* mNode = (BotMeasMsgNode*)myMalloc(sizeof(BotMeasMsgNode));
 404:../src/localization.c **** 	mNode->numTries = 0;
 405:../src/localization.c **** 	mNode->tgt = id;
 406:../src/localization.c **** 	mNode->range = r;
 407:../src/localization.c **** 	mNode->dirMask = 0;
 408:../src/localization.c **** 	for(int8_t j=-45;j<90;j+=45){
 409:../src/localization.c **** 		mNode->dirMask |= 1<<dirFromAngle(pretty_angle_deg(b + j));
 410:../src/localization.c **** 	}
 411:../src/localization.c **** 	mNode->msg.flag = BOT_MEAS_MSG_FLAG;
 412:../src/localization.c **** 	(mNode->msg).pos.x = pos->x;
 413:../src/localization.c **** 	(mNode->msg).pos.y = pos->y;
 414:../src/localization.c **** 	(mNode->msg).pos.o = pos->o;
 415:../src/localization.c **** 	for(uint8_t j=0;j<6;j++){
 416:../src/localization.c **** 		(mNode->msg).covar[j].u =  (*covar)[j].u;
 417:../src/localization.c **** 	}
 418:../src/localization.c **** 	sendBotMeasMsg(mNode);
 419:../src/localization.c **** }
 420:../src/localization.c **** 
 421:../src/localization.c **** //Sends a BotMeasMsg using a poor man's CSMA protocol. Close-range measurements are biased to wait 
 422:../src/localization.c **** //long in exponential backoff.
 423:../src/localization.c **** void sendBotMeasMsg(BotMeasMsgNode* mNode){
 2602               		.loc 1 423 0
 2603               		.cfi_startproc
 2604               	.LVL200:
 2605 0000 2F92      		push r2
 2606               	.LCFI82:
 2607               		.cfi_def_cfa_offset 4
 2608               		.cfi_offset 2, -3
 2609 0002 3F92      		push r3
 2610               	.LCFI83:
 2611               		.cfi_def_cfa_offset 5
 2612               		.cfi_offset 3, -4
 2613 0004 4F92      		push r4
 2614               	.LCFI84:
 2615               		.cfi_def_cfa_offset 6
 2616               		.cfi_offset 4, -5
 2617 0006 5F92      		push r5
 2618               	.LCFI85:
 2619               		.cfi_def_cfa_offset 7
 2620               		.cfi_offset 5, -6
 2621 0008 6F92      		push r6
 2622               	.LCFI86:
 2623               		.cfi_def_cfa_offset 8
 2624               		.cfi_offset 6, -7
 2625 000a 7F92      		push r7
 2626               	.LCFI87:
 2627               		.cfi_def_cfa_offset 9
 2628               		.cfi_offset 7, -8
 2629 000c 8F92      		push r8
 2630               	.LCFI88:
 2631               		.cfi_def_cfa_offset 10
 2632               		.cfi_offset 8, -9
 2633 000e 9F92      		push r9
 2634               	.LCFI89:
 2635               		.cfi_def_cfa_offset 11
 2636               		.cfi_offset 9, -10
 2637 0010 AF92      		push r10
 2638               	.LCFI90:
 2639               		.cfi_def_cfa_offset 12
 2640               		.cfi_offset 10, -11
 2641 0012 BF92      		push r11
 2642               	.LCFI91:
 2643               		.cfi_def_cfa_offset 13
 2644               		.cfi_offset 11, -12
 2645 0014 CF92      		push r12
 2646               	.LCFI92:
 2647               		.cfi_def_cfa_offset 14
 2648               		.cfi_offset 12, -13
 2649 0016 DF92      		push r13
 2650               	.LCFI93:
 2651               		.cfi_def_cfa_offset 15
 2652               		.cfi_offset 13, -14
 2653 0018 EF92      		push r14
 2654               	.LCFI94:
 2655               		.cfi_def_cfa_offset 16
 2656               		.cfi_offset 14, -15
 2657 001a FF92      		push r15
 2658               	.LCFI95:
 2659               		.cfi_def_cfa_offset 17
 2660               		.cfi_offset 15, -16
 2661 001c 0F93      		push r16
 2662               	.LCFI96:
 2663               		.cfi_def_cfa_offset 18
 2664               		.cfi_offset 16, -17
 2665 001e 1F93      		push r17
 2666               	.LCFI97:
 2667               		.cfi_def_cfa_offset 19
 2668               		.cfi_offset 17, -18
 2669 0020 CF93      		push r28
 2670               	.LCFI98:
 2671               		.cfi_def_cfa_offset 20
 2672               		.cfi_offset 28, -19
 2673 0022 DF93      		push r29
 2674               	.LCFI99:
 2675               		.cfi_def_cfa_offset 21
 2676               		.cfi_offset 29, -20
 2677 0024 CDB7      		in r28,__SP_L__
 2678 0026 DEB7      		in r29,__SP_H__
 2679               	.LCFI100:
 2680               		.cfi_def_cfa_register 28
 2681 0028 2E97      		sbiw r28,14
 2682               	.LCFI101:
 2683               		.cfi_def_cfa_offset 35
 2684 002a CDBF      		out __SP_L__,r28
 2685 002c DEBF      		out __SP_H__,r29
 2686               	/* prologue: function */
 2687               	/* frame size = 14 */
 2688               	/* stack size = 32 */
 2689               	.L__stack_usage = 32
 2690 002e 8C01      		movw r16,r24
 424:../src/localization.c **** 	if(!ir_is_busy(ALL_DIRS)){
 2691               		.loc 1 424 0
 2692 0030 8FE3      		ldi r24,lo8(63)
 2693               	.LVL201:
 2694 0032 0E94 0000 		call ir_is_busy
 2695               	.LVL202:
 2696               	.LBB250:
 2697               	.LBB251:
 425:../src/localization.c **** 		ir_targeted_send(mNode->dirMask, (char*)(&(mNode->msg)), sizeof(BotMeasMsg), mNode->tgt);
 2698               		.loc 1 425 0
 2699 0036 F801      		movw r30,r16
 2700               	.LBE251:
 2701               	.LBE250:
 424:../src/localization.c **** 	if(!ir_is_busy(ALL_DIRS)){
 2702               		.loc 1 424 0
 2703 0038 8823      		tst r24
 2704 003a 01F4      		brne .+2
 2705 003c 00C0      		rjmp .L125
 426:../src/localization.c **** 		POS_MSG_DEBUG_PRINT("%04X sent pos msg in dirs %02hX after %hu tries.\r\n", mNode->tgt, mNode->di
 427:../src/localization.c **** 		myFree(mNode);
 428:../src/localization.c **** 	}else{
 429:../src/localization.c **** 		if(mNode->numTries>5){
 2706               		.loc 1 429 0
 2707 003e 808D      		ldd r24,Z+24
 2708 0040 8630      		cpi r24,lo8(6)
 2709 0042 00F0      		brlo .+2
 2710 0044 00C0      		rjmp .L126
 430:../src/localization.c **** 			POS_MSG_DEBUG_PRINT("Giving up on msg to %04X after %hu tries.\r\n", mNode->tgt, mNode->numTries
 431:../src/localization.c **** 			myFree(mNode);
 432:../src/localization.c **** 		}else{
 433:../src/localization.c **** 			schedule_task(getBackoffTime(mNode->numTries, mNode->range), (arg_func_t)sendBotMeasMsg, mNode);
 2711               		.loc 1 433 0
 2712 0046 F801      		movw r30,r16
 2713 0048 E588      		ldd r14,Z+21
 2714 004a F688      		ldd r15,Z+22
 2715               	.LVL203:
 2716               	.LBB259:
 2717               	.LBB260:
 434:../src/localization.c **** 		}
 435:../src/localization.c **** 		mNode->numTries++;
 436:../src/localization.c **** 	}
 437:../src/localization.c **** 
 438:../src/localization.c **** }
 439:../src/localization.c **** 
 440:../src/localization.c **** void handleBotMeasMsg(BotMeasMsg* msg, id_t senderID __attribute__ ((unused))){
 441:../src/localization.c **** 	if(seedFlag) return;
 442:../src/localization.c **** 	if(!POS_DEFINED(&(msg->pos))){
 443:../src/localization.c **** 		MY_POS_DEBUG_PRINT("%04X sent me an undefined position.\r\n", senderID);
 444:../src/localization.c **** 		return;
 445:../src/localization.c **** 	}
 446:../src/localization.c **** 	Matrix covar;
 447:../src/localization.c **** 	decompressP(&covar, &(msg->covar));
 448:../src/localization.c **** 	if(!POS_DEFINED(&myPos)){
 449:../src/localization.c **** 		MY_POS_DEBUG_PRINT("%04X initialized me to {%d, %d, %d}.\r\n", senderID, (msg->pos).x, (msg->pos)
 450:../src/localization.c **** 		myPos.x = (msg->pos).x;
 451:../src/localization.c **** 		myPos.y = (msg->pos).y;
 452:../src/localization.c **** 		myPos.o = (msg->pos).o;
 453:../src/localization.c **** 		for(uint8_t i=0;i<6;i++){
 454:../src/localization.c **** 			myPosCovar[i].u = msg->covar[i].u;
 455:../src/localization.c **** 		}
 456:../src/localization.c **** 		#if defined(MY_POS_DEBUG_MODE) && defined(COVAR_DEBUG_MODE)
 457:../src/localization.c **** 			MY_POS_DEBUG_PRINT("His Est Covar:\r\n");
 458:../src/localization.c **** 			printMatrixMathematica(&covar);
 459:../src/localization.c **** 		#endif
 460:../src/localization.c **** 	}else{
 461:../src/localization.c **** 		MY_POS_DEBUG_PRINT("%04X ", senderID);
 462:../src/localization.c **** 		updatePos(&(msg->pos), &covar);
 463:../src/localization.c **** 	}
 464:../src/localization.c **** }
 465:../src/localization.c **** 
 466:../src/localization.c **** /*
 467:../src/localization.c ****  * This function computes the exponential-backoff time for CSMA.
 468:../src/localization.c ****  *
 469:../src/localization.c ****  * However, while a standard implementation would choose uniformly between 0 and randMax*16,
 470:../src/localization.c ****  * this implementation weights the random choice so that measurements of a smaller radius
 471:../src/localization.c ****  * are more likely to choose lower slots.
 472:../src/localization.c ****  */
 473:../src/localization.c **** static uint32_t getBackoffTime(uint8_t N, uint16_t r){
 474:../src/localization.c **** 	uint8_t randMax = (1<<N) - 1;
 2718               		.loc 1 474 0
 2719 004c 21E0      		ldi r18,lo8(1)
 2720 004e 30E0      		ldi r19,0
 2721 0050 00C0      		rjmp 2f
 2722               		1:
 2723 0052 220F      		lsl r18
 2724 0054 331F      		rol r19
 2725               		2:
 2726 0056 8A95      		dec r24
 2727 0058 02F4      		brpl 1b
 2728 005a 2983      		std Y+1,r18
 2729 005c 3A83      		std Y+2,r19
 2730 005e 2150      		subi r18,lo8(-(-1))
 2731 0060 2D87      		std Y+13,r18
 2732               	.LVL204:
 475:../src/localization.c **** 	float totalValue = 0;
 476:../src/localization.c **** 	float chooser = rand_real();
 2733               		.loc 1 476 0
 2734 0062 0E94 0000 		call rand_real
 2735               	.LVL205:
 2736 0066 6987      		std Y+9,r22
 2737 0068 7A87      		std Y+10,r23
 2738 006a 8B87      		std Y+11,r24
 2739 006c 9C87      		std Y+12,r25
 2740               	.LVL206:
 2741               	.LBB261:
 477:../src/localization.c **** 	//printf("Discrete Triangular:\r\n");
 478:../src/localization.c **** 	for(uint8_t i=0;i<randMax;i++){
 2742               		.loc 1 478 0
 2743 006e 3D85      		ldd r19,Y+13
 2744 0070 3323      		tst r19
 2745 0072 01F4      		brne .+2
 2746 0074 00C0      		rjmp .L109
 2747 0076 232E      		mov r2,r19
 2748 0078 312C      		mov r3,__zero_reg__
 2749 007a B101      		movw r22,r2
 2750 007c 032C      		mov __tmp_reg__,r3
 2751 007e 000C      		lsl r0
 2752 0080 880B      		sbc r24,r24
 2753 0082 990B      		sbc r25,r25
 2754               	.LVL207:
 2755 0084 0E94 0000 		call __floatsisf
 2756               	.LVL208:
 2757 0088 6983      		std Y+1,r22
 2758 008a 7A83      		std Y+2,r23
 2759 008c 8B83      		std Y+3,r24
 2760 008e 9C83      		std Y+4,r25
 2761 0090 B701      		movw r22,r14
 2762 0092 80E0      		ldi r24,0
 2763 0094 90E0      		ldi r25,0
 2764 0096 0E94 0000 		call __floatunsisf
 2765               	.LVL209:
 2766 009a 20E0      		ldi r18,0
 2767 009c 30E0      		ldi r19,0
 2768 009e 48E4      		ldi r20,lo8(72)
 2769 00a0 52E4      		ldi r21,lo8(66)
 2770 00a2 0E94 0000 		call __subsf3
 2771               	.LVL210:
 2772 00a6 20E0      		ldi r18,0
 2773 00a8 30E0      		ldi r19,0
 2774 00aa 46E1      		ldi r20,lo8(22)
 2775 00ac 53E4      		ldi r21,lo8(67)
 2776 00ae 0E94 0000 		call __divsf3
 2777               	.LVL211:
 2778 00b2 2981      		ldd r18,Y+1
 2779 00b4 3A81      		ldd r19,Y+2
 2780 00b6 4B81      		ldd r20,Y+3
 2781 00b8 5C81      		ldd r21,Y+4
 2782 00ba 0E94 0000 		call __mulsf3
 2783               	.LVL212:
 2784 00be 4B01      		movw r8,r22
 2785 00c0 5C01      		movw r10,r24
 2786 00c2 1D82      		std Y+5,__zero_reg__
 2787 00c4 1E82      		std Y+6,__zero_reg__
 2788 00c6 1F82      		std Y+7,__zero_reg__
 2789 00c8 1886      		std Y+8,__zero_reg__
 2790 00ca 1E86      		std Y+14,__zero_reg__
 2791 00cc 00C0      		rjmp .L108
 2792               	.LVL213:
 2793               	.L129:
 2794               	.LBB262:
 2795               	.LBB263:
 479:../src/localization.c **** 		totalValue += discreteTriangularPDF(i, randMax, r);
 480:../src/localization.c **** 		//printf("\t%f\r\n", totalValue);
 481:../src/localization.c **** 		if(chooser<=totalValue){
 482:../src/localization.c **** 			return ((uint32_t)i)*16;
 483:../src/localization.c **** 		}
 484:../src/localization.c **** 	}
 485:../src/localization.c **** 	return randMax*16;
 486:../src/localization.c **** }
 487:../src/localization.c **** 
 488:../src/localization.c **** static float discreteTriangularPDF(float x, uint8_t max, uint16_t r){
 489:../src/localization.c **** 	float c = ((r-50.0)/150.0)*max;
 490:../src/localization.c **** 	float firstTerm;
 491:../src/localization.c **** 	float xPlus = x+0.5;
 492:../src/localization.c **** 	if(xPlus<=c){
 493:../src/localization.c **** 		firstTerm = powf(xPlus,2)/(c*max);
 2796               		.loc 1 493 0
 2797 00ce A301      		movw r20,r6
 2798 00d0 9201      		movw r18,r4
 2799 00d2 C301      		movw r24,r6
 2800 00d4 B201      		movw r22,r4
 2801 00d6 0E94 0000 		call __mulsf3
 2802               	.LVL214:
 2803 00da 2B01      		movw r4,r22
 2804 00dc 3C01      		movw r6,r24
 2805               	.LVL215:
 2806 00de A501      		movw r20,r10
 2807 00e0 9401      		movw r18,r8
 2808 00e2 6981      		ldd r22,Y+1
 2809 00e4 7A81      		ldd r23,Y+2
 2810 00e6 8B81      		ldd r24,Y+3
 2811 00e8 9C81      		ldd r25,Y+4
 2812 00ea 0E94 0000 		call __mulsf3
 2813               	.LVL216:
 2814 00ee 9B01      		movw r18,r22
 2815 00f0 AC01      		movw r20,r24
 2816 00f2 C301      		movw r24,r6
 2817 00f4 B201      		movw r22,r4
 2818 00f6 0E94 0000 		call __divsf3
 2819               	.LVL217:
 2820 00fa 2B01      		movw r4,r22
 2821 00fc 3C01      		movw r6,r24
 2822               	.LVL218:
 2823               	.L95:
 494:../src/localization.c **** 	}else if( (xPlus<=max) && (c<xPlus) ){
 495:../src/localization.c **** 		firstTerm = 1 - powf(xPlus-max,2)/(max*(max-c));
 496:../src/localization.c **** 	}else if(xPlus > max){
 497:../src/localization.c **** 		firstTerm = 1;
 498:../src/localization.c **** 	}else{
 499:../src/localization.c **** 		firstTerm = 0;
 500:../src/localization.c **** 	}
 501:../src/localization.c **** 	float secondTerm;
 502:../src/localization.c **** 	float xMinus = x-0.5;
 2824               		.loc 1 502 0
 2825 00fe 20E0      		ldi r18,0
 2826 0100 30E0      		ldi r19,0
 2827 0102 40E0      		ldi r20,0
 2828 0104 5FE3      		ldi r21,lo8(63)
 2829 0106 C701      		movw r24,r14
 2830 0108 B601      		movw r22,r12
 2831 010a 0E94 0000 		call __subsf3
 2832               	.LVL219:
 2833 010e 6B01      		movw r12,r22
 2834 0110 7C01      		movw r14,r24
 2835               	.LVL220:
 503:../src/localization.c **** 	if((0 < xMinus) && (xMinus<=c)){
 2836               		.loc 1 503 0
 2837 0112 20E0      		ldi r18,0
 2838 0114 30E0      		ldi r19,0
 2839 0116 A901      		movw r20,r18
 2840 0118 0E94 0000 		call __gtsf2
 2841               	.LVL221:
 2842 011c 1816      		cp __zero_reg__,r24
 2843 011e 04F4      		brge .L100
 2844 0120 A501      		movw r20,r10
 2845 0122 9401      		movw r18,r8
 2846 0124 C701      		movw r24,r14
 2847 0126 B601      		movw r22,r12
 2848 0128 0E94 0000 		call __lesf2
 2849               	.LVL222:
 2850 012c 1816      		cp __zero_reg__,r24
 2851 012e 04F0      		brlt .+2
 2852 0130 00C0      		rjmp .L127
 2853               	.L100:
 504:../src/localization.c **** 		secondTerm = powf(xMinus,2)/(c*max);
 505:../src/localization.c **** 	}else if( xMinus > c ){
 2854               		.loc 1 505 0
 2855 0132 A501      		movw r20,r10
 2856 0134 9401      		movw r18,r8
 2857 0136 C701      		movw r24,r14
 2858 0138 B601      		movw r22,r12
 2859 013a 0E94 0000 		call __gtsf2
 2860               	.LVL223:
 2861 013e 1816      		cp __zero_reg__,r24
 2862 0140 04F0      		brlt .+2
 2863 0142 00C0      		rjmp .L123
 506:../src/localization.c **** 		secondTerm = 1 - powf(max-xMinus,2)/(max*(max-c));
 2864               		.loc 1 506 0
 2865 0144 A701      		movw r20,r14
 2866 0146 9601      		movw r18,r12
 2867 0148 6981      		ldd r22,Y+1
 2868 014a 7A81      		ldd r23,Y+2
 2869 014c 8B81      		ldd r24,Y+3
 2870 014e 9C81      		ldd r25,Y+4
 2871 0150 0E94 0000 		call __subsf3
 2872               	.LVL224:
 2873 0154 9B01      		movw r18,r22
 2874 0156 AC01      		movw r20,r24
 2875 0158 0E94 0000 		call __mulsf3
 2876               	.LVL225:
 2877 015c 6B01      		movw r12,r22
 2878 015e 7C01      		movw r14,r24
 2879               	.LVL226:
 2880 0160 A501      		movw r20,r10
 2881 0162 9401      		movw r18,r8
 2882 0164 6981      		ldd r22,Y+1
 2883 0166 7A81      		ldd r23,Y+2
 2884 0168 8B81      		ldd r24,Y+3
 2885 016a 9C81      		ldd r25,Y+4
 2886 016c 0E94 0000 		call __subsf3
 2887               	.LVL227:
 2888 0170 2981      		ldd r18,Y+1
 2889 0172 3A81      		ldd r19,Y+2
 2890 0174 4B81      		ldd r20,Y+3
 2891 0176 5C81      		ldd r21,Y+4
 2892 0178 0E94 0000 		call __mulsf3
 2893               	.LVL228:
 2894 017c 9B01      		movw r18,r22
 2895 017e AC01      		movw r20,r24
 2896 0180 C701      		movw r24,r14
 2897 0182 B601      		movw r22,r12
 2898 0184 0E94 0000 		call __divsf3
 2899               	.LVL229:
 2900 0188 9B01      		movw r18,r22
 2901 018a AC01      		movw r20,r24
 2902 018c 60E0      		ldi r22,0
 2903 018e 70E0      		ldi r23,0
 2904 0190 80E8      		ldi r24,lo8(-128)
 2905 0192 9FE3      		ldi r25,lo8(63)
 2906 0194 0E94 0000 		call __subsf3
 2907               	.LVL230:
 2908 0198 9B01      		movw r18,r22
 2909 019a AC01      		movw r20,r24
 2910               	.LVL231:
 2911               	.L103:
 2912               	.LBE263:
 2913               	.LBE262:
 479:../src/localization.c **** 		//printf("\t%f\r\n", totalValue);
 2914               		.loc 1 479 0
 2915 019c C301      		movw r24,r6
 2916 019e B201      		movw r22,r4
 2917 01a0 0E94 0000 		call __subsf3
 2918               	.LVL232:
 2919 01a4 9B01      		movw r18,r22
 2920 01a6 AC01      		movw r20,r24
 2921 01a8 6D81      		ldd r22,Y+5
 2922 01aa 7E81      		ldd r23,Y+6
 2923 01ac 8F81      		ldd r24,Y+7
 2924 01ae 9885      		ldd r25,Y+8
 2925 01b0 0E94 0000 		call __addsf3
 2926               	.LVL233:
 2927 01b4 6D83      		std Y+5,r22
 2928 01b6 7E83      		std Y+6,r23
 2929 01b8 8F83      		std Y+7,r24
 2930 01ba 9887      		std Y+8,r25
 2931               	.LVL234:
 481:../src/localization.c **** 			return ((uint32_t)i)*16;
 2932               		.loc 1 481 0
 2933 01bc 9B01      		movw r18,r22
 2934 01be AC01      		movw r20,r24
 2935 01c0 6985      		ldd r22,Y+9
 2936 01c2 7A85      		ldd r23,Y+10
 2937 01c4 8B85      		ldd r24,Y+11
 2938 01c6 9C85      		ldd r25,Y+12
 2939               	.LVL235:
 2940 01c8 0E94 0000 		call __lesf2
 2941               	.LVL236:
 2942 01cc 1816      		cp __zero_reg__,r24
 2943 01ce 04F0      		brlt .+2
 2944 01d0 00C0      		rjmp .L128
 478:../src/localization.c **** 		totalValue += discreteTriangularPDF(i, randMax, r);
 2945               		.loc 1 478 0
 2946 01d2 2E85      		ldd r18,Y+14
 2947 01d4 2F5F      		subi r18,lo8(-(1))
 2948 01d6 2E87      		std Y+14,r18
 2949               	.LVL237:
 2950 01d8 3D85      		ldd r19,Y+13
 2951 01da 2317      		cp r18,r19
 2952 01dc 00F0      		brlo .+2
 2953 01de 00C0      		rjmp .L92
 2954               	.LVL238:
 2955               	.L108:
 479:../src/localization.c **** 		//printf("\t%f\r\n", totalValue);
 2956               		.loc 1 479 0
 2957 01e0 EE85      		ldd r30,Y+14
 2958 01e2 6E2F      		mov r22,r30
 2959 01e4 70E0      		ldi r23,0
 2960 01e6 80E0      		ldi r24,0
 2961 01e8 90E0      		ldi r25,0
 2962 01ea 0E94 0000 		call __floatunsisf
 2963               	.LVL239:
 2964 01ee 6B01      		movw r12,r22
 2965 01f0 7C01      		movw r14,r24
 2966               	.LVL240:
 2967               	.LBB265:
 2968               	.LBB264:
 491:../src/localization.c **** 	if(xPlus<=c){
 2969               		.loc 1 491 0
 2970 01f2 20E0      		ldi r18,0
 2971 01f4 30E0      		ldi r19,0
 2972 01f6 40E0      		ldi r20,0
 2973 01f8 5FE3      		ldi r21,lo8(63)
 2974 01fa 0E94 0000 		call __addsf3
 2975               	.LVL241:
 2976 01fe 2B01      		movw r4,r22
 2977 0200 3C01      		movw r6,r24
 2978               	.LVL242:
 492:../src/localization.c **** 		firstTerm = powf(xPlus,2)/(c*max);
 2979               		.loc 1 492 0
 2980 0202 A501      		movw r20,r10
 2981 0204 9401      		movw r18,r8
 2982 0206 0E94 0000 		call __lesf2
 2983               	.LVL243:
 2984 020a 1816      		cp __zero_reg__,r24
 2985 020c 04F0      		brlt .+2
 2986 020e 00C0      		rjmp .L129
 494:../src/localization.c **** 		firstTerm = 1 - powf(xPlus-max,2)/(max*(max-c));
 2987               		.loc 1 494 0
 2988 0210 2981      		ldd r18,Y+1
 2989 0212 3A81      		ldd r19,Y+2
 2990 0214 4B81      		ldd r20,Y+3
 2991 0216 5C81      		ldd r21,Y+4
 2992 0218 C301      		movw r24,r6
 2993 021a B201      		movw r22,r4
 2994 021c 0E94 0000 		call __lesf2
 2995               	.LVL244:
 2996 0220 1816      		cp __zero_reg__,r24
 2997 0222 04F0      		brlt .L96
 2998 0224 A501      		movw r20,r10
 2999 0226 9401      		movw r18,r8
 3000 0228 C301      		movw r24,r6
 3001 022a B201      		movw r22,r4
 3002 022c 0E94 0000 		call __gtsf2
 3003               	.LVL245:
 3004 0230 1816      		cp __zero_reg__,r24
 3005 0232 04F4      		brge .L96
 495:../src/localization.c **** 	}else if(xPlus > max){
 3006               		.loc 1 495 0
 3007 0234 2981      		ldd r18,Y+1
 3008 0236 3A81      		ldd r19,Y+2
 3009 0238 4B81      		ldd r20,Y+3
 3010 023a 5C81      		ldd r21,Y+4
 3011 023c C301      		movw r24,r6
 3012 023e B201      		movw r22,r4
 3013 0240 0E94 0000 		call __subsf3
 3014               	.LVL246:
 3015 0244 9B01      		movw r18,r22
 3016 0246 AC01      		movw r20,r24
 3017 0248 0E94 0000 		call __mulsf3
 3018               	.LVL247:
 3019 024c 2B01      		movw r4,r22
 3020 024e 3C01      		movw r6,r24
 3021               	.LVL248:
 3022 0250 A501      		movw r20,r10
 3023 0252 9401      		movw r18,r8
 3024 0254 6981      		ldd r22,Y+1
 3025 0256 7A81      		ldd r23,Y+2
 3026 0258 8B81      		ldd r24,Y+3
 3027 025a 9C81      		ldd r25,Y+4
 3028 025c 0E94 0000 		call __subsf3
 3029               	.LVL249:
 3030 0260 2981      		ldd r18,Y+1
 3031 0262 3A81      		ldd r19,Y+2
 3032 0264 4B81      		ldd r20,Y+3
 3033 0266 5C81      		ldd r21,Y+4
 3034 0268 0E94 0000 		call __mulsf3
 3035               	.LVL250:
 3036 026c 9B01      		movw r18,r22
 3037 026e AC01      		movw r20,r24
 3038 0270 C301      		movw r24,r6
 3039 0272 B201      		movw r22,r4
 3040 0274 0E94 0000 		call __divsf3
 3041               	.LVL251:
 3042 0278 9B01      		movw r18,r22
 3043 027a AC01      		movw r20,r24
 3044 027c 60E0      		ldi r22,0
 3045 027e 70E0      		ldi r23,0
 3046 0280 80E8      		ldi r24,lo8(-128)
 3047 0282 9FE3      		ldi r25,lo8(63)
 3048 0284 0E94 0000 		call __subsf3
 3049               	.LVL252:
 3050 0288 2B01      		movw r4,r22
 3051 028a 3C01      		movw r6,r24
 3052               	.LVL253:
 3053 028c 00C0      		rjmp .L95
 3054               	.LVL254:
 3055               	.L96:
 496:../src/localization.c **** 		firstTerm = 1;
 3056               		.loc 1 496 0
 3057 028e 2981      		ldd r18,Y+1
 3058 0290 3A81      		ldd r19,Y+2
 3059 0292 4B81      		ldd r20,Y+3
 3060 0294 5C81      		ldd r21,Y+4
 3061 0296 C301      		movw r24,r6
 3062 0298 B201      		movw r22,r4
 3063 029a 0E94 0000 		call __gtsf2
 3064               	.LVL255:
 3065 029e 1816      		cp __zero_reg__,r24
 3066 02a0 04F4      		brge .L122
 497:../src/localization.c **** 	}else{
 3067               		.loc 1 497 0
 3068 02a2 412C      		mov r4,__zero_reg__
 3069 02a4 512C      		mov r5,__zero_reg__
 3070 02a6 40E8      		ldi r20,lo8(-128)
 3071 02a8 642E      		mov r6,r20
 3072 02aa 4FE3      		ldi r20,lo8(63)
 3073 02ac 742E      		mov r7,r20
 3074               	.LVL256:
 3075 02ae 00C0      		rjmp .L95
 3076               	.LVL257:
 3077               	.L127:
 504:../src/localization.c **** 	}else if( xMinus > c ){
 3078               		.loc 1 504 0
 3079 02b0 A701      		movw r20,r14
 3080 02b2 9601      		movw r18,r12
 3081 02b4 C701      		movw r24,r14
 3082 02b6 B601      		movw r22,r12
 3083 02b8 0E94 0000 		call __mulsf3
 3084               	.LVL258:
 3085 02bc 6B01      		movw r12,r22
 3086 02be 7C01      		movw r14,r24
 3087               	.LVL259:
 3088 02c0 A501      		movw r20,r10
 3089 02c2 9401      		movw r18,r8
 3090 02c4 6981      		ldd r22,Y+1
 3091 02c6 7A81      		ldd r23,Y+2
 3092 02c8 8B81      		ldd r24,Y+3
 3093 02ca 9C81      		ldd r25,Y+4
 3094 02cc 0E94 0000 		call __mulsf3
 3095               	.LVL260:
 3096 02d0 9B01      		movw r18,r22
 3097 02d2 AC01      		movw r20,r24
 3098 02d4 C701      		movw r24,r14
 3099 02d6 B601      		movw r22,r12
 3100 02d8 0E94 0000 		call __divsf3
 3101               	.LVL261:
 3102 02dc 9B01      		movw r18,r22
 3103 02de AC01      		movw r20,r24
 3104               	.LVL262:
 3105 02e0 00C0      		rjmp .L103
 3106               	.LVL263:
 3107               	.L123:
 507:../src/localization.c **** 	}else{
 508:../src/localization.c **** 		secondTerm = 0;
 3108               		.loc 1 508 0
 3109 02e2 20E0      		ldi r18,0
 3110 02e4 30E0      		ldi r19,0
 3111 02e6 A901      		movw r20,r18
 3112 02e8 00C0      		rjmp .L103
 3113               	.LVL264:
 3114               	.L122:
 499:../src/localization.c **** 	}
 3115               		.loc 1 499 0
 3116 02ea 412C      		mov r4,__zero_reg__
 3117 02ec 512C      		mov r5,__zero_reg__
 3118 02ee 3201      		movw r6,r4
 3119               	.LVL265:
 3120 02f0 00C0      		rjmp .L95
 3121               	.LVL266:
 3122               	.L125:
 3123               	.LBE264:
 3124               	.LBE265:
 3125               	.LBE261:
 3126               	.LBE260:
 3127               	.LBE259:
 3128               	.LBB270:
 3129               	.LBB258:
 425:../src/localization.c **** 		POS_MSG_DEBUG_PRINT("%04X sent pos msg in dirs %02hX after %hu tries.\r\n", mNode->tgt, mNode->di
 3130               		.loc 1 425 0
 3131 02f2 2389      		ldd r18,Z+19
 3132 02f4 3489      		ldd r19,Z+20
 3133 02f6 43E1      		ldi r20,lo8(19)
 3134 02f8 B801      		movw r22,r16
 3135 02fa 8789      		ldd r24,Z+23
 3136 02fc 0E94 0000 		call ir_targeted_send
 3137               	.LVL267:
 426:../src/localization.c **** 		myFree(mNode);
 3138               		.loc 1 426 0
 3139 0300 F801      		movw r30,r16
 3140 0302 808D      		ldd r24,Z+24
 3141 0304 1F92      		push __zero_reg__
 3142 0306 8F93      		push r24
 3143 0308 8789      		ldd r24,Z+23
 3144 030a 1F92      		push __zero_reg__
 3145 030c 8F93      		push r24
 3146 030e 8489      		ldd r24,Z+20
 3147 0310 8F93      		push r24
 3148 0312 8389      		ldd r24,Z+19
 3149 0314 8F93      		push r24
 3150 0316 80E0      		ldi r24,lo8(__c.5630)
 3151 0318 90E0      		ldi r25,hi8(__c.5630)
 3152 031a 9F93      		push r25
 3153 031c 8F93      		push r24
 3154 031e 0E94 0000 		call printf_P
 3155               	.LVL268:
 3156               	.LBB252:
 3157               	.LBB253:
 3158               		.file 3 "../include/droplet_base.h"
   1:../include/droplet_base.h **** #pragma once
   2:../include/droplet_base.h **** 
   3:../include/droplet_base.h **** //#define AUDIO_DROPLET
   4:../include/droplet_base.h **** #define SYNCHRONIZED
   5:../include/droplet_base.h **** 
   6:../include/droplet_base.h **** #include <avr/io.h>
   7:../include/droplet_base.h **** #include <avr/interrupt.h>
   8:../include/droplet_base.h **** #include <util/atomic.h>
   9:../include/droplet_base.h **** #include <util/delay.h>
  10:../include/droplet_base.h **** #include <util/crc16.h>
  11:../include/droplet_base.h **** #include <stdlib.h>
  12:../include/droplet_base.h **** #include <stdio.h>
  13:../include/droplet_base.h **** #include <avr/pgmspace.h>
  14:../include/droplet_base.h **** #include <string.h>
  15:../include/droplet_base.h **** 
  16:../include/droplet_base.h **** typedef uint16_t id_t;
  17:../include/droplet_base.h **** 
  18:../include/droplet_base.h **** //Any #defines needed by other Droplet files
  19:../include/droplet_base.h **** #define DIR0		((uint8_t)0x01)
  20:../include/droplet_base.h **** #define DIR1		((uint8_t)0x02)
  21:../include/droplet_base.h **** #define DIR2		((uint8_t)0x04)
  22:../include/droplet_base.h **** #define DIR3		((uint8_t)0x08)
  23:../include/droplet_base.h **** #define DIR4		((uint8_t)0x10)
  24:../include/droplet_base.h **** #define DIR5		((uint8_t)0x20)
  25:../include/droplet_base.h **** #define ALL_DIRS	((uint8_t)0x3F)
  26:../include/droplet_base.h **** 
  27:../include/droplet_base.h **** #define DIR_NE		DIR0
  28:../include/droplet_base.h **** #define DIR_E		DIR1
  29:../include/droplet_base.h **** #define DIR_SE		DIR2
  30:../include/droplet_base.h **** #define DIR_SW		DIR3
  31:../include/droplet_base.h **** #define DIR_W		DIR4
  32:../include/droplet_base.h **** #define DIR_NW		DIR5
  33:../include/droplet_base.h **** 
  34:../include/droplet_base.h **** id_t droplet_ID;
  35:../include/droplet_base.h **** volatile uint16_t rtc_epoch;
  36:../include/droplet_base.h **** 
  37:../include/droplet_base.h **** // Returns the number of ms elapsed since the last reset. (Defined in droplet_base_asm.s)
  38:../include/droplet_base.h **** uint32_t get_time(void);
  39:../include/droplet_base.h **** 
  40:../include/droplet_base.h **** // Returns this Droplet's unique 16-bit identifier. 0 will never be an identifier.
  41:../include/droplet_base.h **** inline id_t get_droplet_id(void){ 
  42:../include/droplet_base.h **** 	return droplet_ID;
  43:../include/droplet_base.h **** }
  44:../include/droplet_base.h **** 
  45:../include/droplet_base.h **** inline void* myMalloc(size_t size){
  46:../include/droplet_base.h **** 	void* tmp = NULL;
  47:../include/droplet_base.h **** 	ATOMIC_BLOCK(ATOMIC_RESTORESTATE){
  48:../include/droplet_base.h **** 		tmp = malloc(size);
  49:../include/droplet_base.h **** 	}
  50:../include/droplet_base.h **** 	return tmp;
  51:../include/droplet_base.h **** }
  52:../include/droplet_base.h **** 
  53:../include/droplet_base.h **** inline void myFree(void* ptr){
  54:../include/droplet_base.h **** 	ATOMIC_BLOCK(ATOMIC_RESTORESTATE){
 3159               		.loc 3 54 0
 3160 0322 FFB7      		in r31,__SREG__
 3161 0324 F983      		std Y+1,r31
 3162               	.LVL269:
 3163               	.LBB254:
 3164               	.LBB255:
 3165               		.file 4 "c:\\program files (x86)\\atmel\\studio\\7.0\\toolchain\\avr8\\avr8-gnu-toolchain\\avr\\in
   1:c:\program files (x86)\atmel\studio\7.0\toolchain\avr8\avr8-gnu-toolchain\avr\include\util\atomic.h **** /* Copyright (c) 2007 Dean Camera
   2:c:\program files (x86)\atmel\studio\7.0\toolchain\avr8\avr8-gnu-toolchain\avr\include\util\atomic.h ****    All rights reserved.
   3:c:\program files (x86)\atmel\studio\7.0\toolchain\avr8\avr8-gnu-toolchain\avr\include\util\atomic.h **** 
   4:c:\program files (x86)\atmel\studio\7.0\toolchain\avr8\avr8-gnu-toolchain\avr\include\util\atomic.h ****    Redistribution and use in source and binary forms, with or without
   5:c:\program files (x86)\atmel\studio\7.0\toolchain\avr8\avr8-gnu-toolchain\avr\include\util\atomic.h ****    modification, are permitted provided that the following conditions are met:
   6:c:\program files (x86)\atmel\studio\7.0\toolchain\avr8\avr8-gnu-toolchain\avr\include\util\atomic.h **** 
   7:c:\program files (x86)\atmel\studio\7.0\toolchain\avr8\avr8-gnu-toolchain\avr\include\util\atomic.h ****    * Redistributions of source code must retain the above copyright
   8:c:\program files (x86)\atmel\studio\7.0\toolchain\avr8\avr8-gnu-toolchain\avr\include\util\atomic.h ****      notice, this list of conditions and the following disclaimer.
   9:c:\program files (x86)\atmel\studio\7.0\toolchain\avr8\avr8-gnu-toolchain\avr\include\util\atomic.h **** 
  10:c:\program files (x86)\atmel\studio\7.0\toolchain\avr8\avr8-gnu-toolchain\avr\include\util\atomic.h ****    * Redistributions in binary form must reproduce the above copyright
  11:c:\program files (x86)\atmel\studio\7.0\toolchain\avr8\avr8-gnu-toolchain\avr\include\util\atomic.h ****      notice, this list of conditions and the following disclaimer in
  12:c:\program files (x86)\atmel\studio\7.0\toolchain\avr8\avr8-gnu-toolchain\avr\include\util\atomic.h ****      the documentation and/or other materials provided with the
  13:c:\program files (x86)\atmel\studio\7.0\toolchain\avr8\avr8-gnu-toolchain\avr\include\util\atomic.h ****      distribution.
  14:c:\program files (x86)\atmel\studio\7.0\toolchain\avr8\avr8-gnu-toolchain\avr\include\util\atomic.h **** 
  15:c:\program files (x86)\atmel\studio\7.0\toolchain\avr8\avr8-gnu-toolchain\avr\include\util\atomic.h ****    * Neither the name of the copyright holders nor the names of
  16:c:\program files (x86)\atmel\studio\7.0\toolchain\avr8\avr8-gnu-toolchain\avr\include\util\atomic.h ****      contributors may be used to endorse or promote products derived
  17:c:\program files (x86)\atmel\studio\7.0\toolchain\avr8\avr8-gnu-toolchain\avr\include\util\atomic.h ****      from this software without specific prior written permission.
  18:c:\program files (x86)\atmel\studio\7.0\toolchain\avr8\avr8-gnu-toolchain\avr\include\util\atomic.h **** 
  19:c:\program files (x86)\atmel\studio\7.0\toolchain\avr8\avr8-gnu-toolchain\avr\include\util\atomic.h ****   THIS SOFTWARE IS PROVIDED BY THE COPYRIGHT HOLDERS AND CONTRIBUTORS "AS IS"
  20:c:\program files (x86)\atmel\studio\7.0\toolchain\avr8\avr8-gnu-toolchain\avr\include\util\atomic.h ****   AND ANY EXPRESS OR IMPLIED WARRANTIES, INCLUDING, BUT NOT LIMITED TO, THE
  21:c:\program files (x86)\atmel\studio\7.0\toolchain\avr8\avr8-gnu-toolchain\avr\include\util\atomic.h ****   IMPLIED WARRANTIES OF MERCHANTABILITY AND FITNESS FOR A PARTICULAR PURPOSE
  22:c:\program files (x86)\atmel\studio\7.0\toolchain\avr8\avr8-gnu-toolchain\avr\include\util\atomic.h ****   ARE DISCLAIMED. IN NO EVENT SHALL THE COPYRIGHT OWNER OR CONTRIBUTORS BE
  23:c:\program files (x86)\atmel\studio\7.0\toolchain\avr8\avr8-gnu-toolchain\avr\include\util\atomic.h ****   LIABLE FOR ANY DIRECT, INDIRECT, INCIDENTAL, SPECIAL, EXEMPLARY, OR
  24:c:\program files (x86)\atmel\studio\7.0\toolchain\avr8\avr8-gnu-toolchain\avr\include\util\atomic.h ****   CONSEQUENTIAL DAMAGES (INCLUDING, BUT NOT LIMITED TO, PROCUREMENT OF
  25:c:\program files (x86)\atmel\studio\7.0\toolchain\avr8\avr8-gnu-toolchain\avr\include\util\atomic.h ****   SUBSTITUTE GOODS OR SERVICES; LOSS OF USE, DATA, OR PROFITS; OR BUSINESS
  26:c:\program files (x86)\atmel\studio\7.0\toolchain\avr8\avr8-gnu-toolchain\avr\include\util\atomic.h ****   INTERRUPTION) HOWEVER CAUSED AND ON ANY THEORY OF LIABILITY, WHETHER IN
  27:c:\program files (x86)\atmel\studio\7.0\toolchain\avr8\avr8-gnu-toolchain\avr\include\util\atomic.h ****   CONTRACT, STRICT LIABILITY, OR TORT (INCLUDING NEGLIGENCE OR OTHERWISE)
  28:c:\program files (x86)\atmel\studio\7.0\toolchain\avr8\avr8-gnu-toolchain\avr\include\util\atomic.h ****   ARISING IN ANY WAY OUT OF THE USE OF THIS SOFTWARE, EVEN IF ADVISED OF THE
  29:c:\program files (x86)\atmel\studio\7.0\toolchain\avr8\avr8-gnu-toolchain\avr\include\util\atomic.h ****   POSSIBILITY OF SUCH DAMAGE.
  30:c:\program files (x86)\atmel\studio\7.0\toolchain\avr8\avr8-gnu-toolchain\avr\include\util\atomic.h **** */
  31:c:\program files (x86)\atmel\studio\7.0\toolchain\avr8\avr8-gnu-toolchain\avr\include\util\atomic.h **** 
  32:c:\program files (x86)\atmel\studio\7.0\toolchain\avr8\avr8-gnu-toolchain\avr\include\util\atomic.h **** /* $Id$ */
  33:c:\program files (x86)\atmel\studio\7.0\toolchain\avr8\avr8-gnu-toolchain\avr\include\util\atomic.h **** 
  34:c:\program files (x86)\atmel\studio\7.0\toolchain\avr8\avr8-gnu-toolchain\avr\include\util\atomic.h **** #ifndef _UTIL_ATOMIC_H_
  35:c:\program files (x86)\atmel\studio\7.0\toolchain\avr8\avr8-gnu-toolchain\avr\include\util\atomic.h **** #define _UTIL_ATOMIC_H_ 1
  36:c:\program files (x86)\atmel\studio\7.0\toolchain\avr8\avr8-gnu-toolchain\avr\include\util\atomic.h **** 
  37:c:\program files (x86)\atmel\studio\7.0\toolchain\avr8\avr8-gnu-toolchain\avr\include\util\atomic.h **** #include <avr/io.h>
  38:c:\program files (x86)\atmel\studio\7.0\toolchain\avr8\avr8-gnu-toolchain\avr\include\util\atomic.h **** #include <avr/interrupt.h>
  39:c:\program files (x86)\atmel\studio\7.0\toolchain\avr8\avr8-gnu-toolchain\avr\include\util\atomic.h **** 
  40:c:\program files (x86)\atmel\studio\7.0\toolchain\avr8\avr8-gnu-toolchain\avr\include\util\atomic.h **** #if !defined(__DOXYGEN__)
  41:c:\program files (x86)\atmel\studio\7.0\toolchain\avr8\avr8-gnu-toolchain\avr\include\util\atomic.h **** /* Internal helper functions. */
  42:c:\program files (x86)\atmel\studio\7.0\toolchain\avr8\avr8-gnu-toolchain\avr\include\util\atomic.h **** static __inline__ uint8_t __iSeiRetVal(void)
  43:c:\program files (x86)\atmel\studio\7.0\toolchain\avr8\avr8-gnu-toolchain\avr\include\util\atomic.h **** {
  44:c:\program files (x86)\atmel\studio\7.0\toolchain\avr8\avr8-gnu-toolchain\avr\include\util\atomic.h ****     sei();
  45:c:\program files (x86)\atmel\studio\7.0\toolchain\avr8\avr8-gnu-toolchain\avr\include\util\atomic.h ****     return 1;
  46:c:\program files (x86)\atmel\studio\7.0\toolchain\avr8\avr8-gnu-toolchain\avr\include\util\atomic.h **** }
  47:c:\program files (x86)\atmel\studio\7.0\toolchain\avr8\avr8-gnu-toolchain\avr\include\util\atomic.h **** 
  48:c:\program files (x86)\atmel\studio\7.0\toolchain\avr8\avr8-gnu-toolchain\avr\include\util\atomic.h **** static __inline__ uint8_t __iCliRetVal(void)
  49:c:\program files (x86)\atmel\studio\7.0\toolchain\avr8\avr8-gnu-toolchain\avr\include\util\atomic.h **** {
  50:c:\program files (x86)\atmel\studio\7.0\toolchain\avr8\avr8-gnu-toolchain\avr\include\util\atomic.h ****     cli();
 3166               		.loc 4 50 0
 3167               	/* #APP */
 3168               	 ;  50 "c:\program files (x86)\atmel\studio\7.0\toolchain\avr8\avr8-gnu-toolchain\avr\include\util\
 3169 0326 F894      		cli
 3170               	 ;  0 "" 2
 3171               	.LVL270:
 3172               	/* #NOAPP */
 3173               	.LBE255:
 3174               	.LBE254:
  55:../include/droplet_base.h **** 		free(ptr);
 3175               		.loc 3 55 0
 3176 0328 C801      		movw r24,r16
 3177 032a 0E94 0000 		call free
 3178               	.LVL271:
 3179               	.LBB256:
 3180               	.LBB257:
  51:c:\program files (x86)\atmel\studio\7.0\toolchain\avr8\avr8-gnu-toolchain\avr\include\util\atomic.h ****     return 1;
  52:c:\program files (x86)\atmel\studio\7.0\toolchain\avr8\avr8-gnu-toolchain\avr\include\util\atomic.h **** }
  53:c:\program files (x86)\atmel\studio\7.0\toolchain\avr8\avr8-gnu-toolchain\avr\include\util\atomic.h **** 
  54:c:\program files (x86)\atmel\studio\7.0\toolchain\avr8\avr8-gnu-toolchain\avr\include\util\atomic.h **** static __inline__ void __iSeiParam(const uint8_t *__s)
  55:c:\program files (x86)\atmel\studio\7.0\toolchain\avr8\avr8-gnu-toolchain\avr\include\util\atomic.h **** {
  56:c:\program files (x86)\atmel\studio\7.0\toolchain\avr8\avr8-gnu-toolchain\avr\include\util\atomic.h ****     sei();
  57:c:\program files (x86)\atmel\studio\7.0\toolchain\avr8\avr8-gnu-toolchain\avr\include\util\atomic.h ****     __asm__ volatile ("" ::: "memory");
  58:c:\program files (x86)\atmel\studio\7.0\toolchain\avr8\avr8-gnu-toolchain\avr\include\util\atomic.h ****     (void)__s;
  59:c:\program files (x86)\atmel\studio\7.0\toolchain\avr8\avr8-gnu-toolchain\avr\include\util\atomic.h **** }
  60:c:\program files (x86)\atmel\studio\7.0\toolchain\avr8\avr8-gnu-toolchain\avr\include\util\atomic.h **** 
  61:c:\program files (x86)\atmel\studio\7.0\toolchain\avr8\avr8-gnu-toolchain\avr\include\util\atomic.h **** static __inline__ void __iCliParam(const uint8_t *__s)
  62:c:\program files (x86)\atmel\studio\7.0\toolchain\avr8\avr8-gnu-toolchain\avr\include\util\atomic.h **** {
  63:c:\program files (x86)\atmel\studio\7.0\toolchain\avr8\avr8-gnu-toolchain\avr\include\util\atomic.h ****     cli();
  64:c:\program files (x86)\atmel\studio\7.0\toolchain\avr8\avr8-gnu-toolchain\avr\include\util\atomic.h ****     __asm__ volatile ("" ::: "memory");
  65:c:\program files (x86)\atmel\studio\7.0\toolchain\avr8\avr8-gnu-toolchain\avr\include\util\atomic.h ****     (void)__s;
  66:c:\program files (x86)\atmel\studio\7.0\toolchain\avr8\avr8-gnu-toolchain\avr\include\util\atomic.h **** }
  67:c:\program files (x86)\atmel\studio\7.0\toolchain\avr8\avr8-gnu-toolchain\avr\include\util\atomic.h **** 
  68:c:\program files (x86)\atmel\studio\7.0\toolchain\avr8\avr8-gnu-toolchain\avr\include\util\atomic.h **** static __inline__ void __iRestore(const  uint8_t *__s)
  69:c:\program files (x86)\atmel\studio\7.0\toolchain\avr8\avr8-gnu-toolchain\avr\include\util\atomic.h **** {
  70:c:\program files (x86)\atmel\studio\7.0\toolchain\avr8\avr8-gnu-toolchain\avr\include\util\atomic.h ****     SREG = *__s;
 3181               		.loc 4 70 0
 3182 032e 2981      		ldd r18,Y+1
 3183 0330 2FBF      		out __SREG__,r18
 3184               	.LVL272:
  71:c:\program files (x86)\atmel\studio\7.0\toolchain\avr8\avr8-gnu-toolchain\avr\include\util\atomic.h ****     __asm__ volatile ("" ::: "memory");
 3185               		.loc 4 71 0
 3186 0332 CDBF      		out __SP_L__,r28
 3187 0334 DEBF      		out __SP_H__,r29
 3188               	.LVL273:
 3189               	.L87:
 3190               	/* epilogue start */
 3191               	.LBE257:
 3192               	.LBE256:
 3193               	.LBE253:
 3194               	.LBE252:
 3195               	.LBE258:
 3196               	.LBE270:
 438:../src/localization.c **** 
 3197               		.loc 1 438 0
 3198 0336 2E96      		adiw r28,14
 3199 0338 CDBF      		out __SP_L__,r28
 3200 033a DEBF      		out __SP_H__,r29
 3201 033c DF91      		pop r29
 3202 033e CF91      		pop r28
 3203 0340 1F91      		pop r17
 3204 0342 0F91      		pop r16
 3205               	.LVL274:
 3206 0344 FF90      		pop r15
 3207 0346 EF90      		pop r14
 3208 0348 DF90      		pop r13
 3209 034a CF90      		pop r12
 3210 034c BF90      		pop r11
 3211 034e AF90      		pop r10
 3212 0350 9F90      		pop r9
 3213 0352 8F90      		pop r8
 3214 0354 7F90      		pop r7
 3215 0356 6F90      		pop r6
 3216 0358 5F90      		pop r5
 3217 035a 4F90      		pop r4
 3218 035c 3F90      		pop r3
 3219 035e 2F90      		pop r2
 3220 0360 0895      		ret
 3221               	.LVL275:
 3222               	.L126:
 430:../src/localization.c **** 			myFree(mNode);
 3223               		.loc 1 430 0
 3224 0362 1F92      		push __zero_reg__
 3225 0364 8F93      		push r24
 3226 0366 8489      		ldd r24,Z+20
 3227 0368 8F93      		push r24
 3228 036a 8389      		ldd r24,Z+19
 3229 036c 8F93      		push r24
 3230 036e 80E0      		ldi r24,lo8(__c.5632)
 3231 0370 90E0      		ldi r25,hi8(__c.5632)
 3232 0372 9F93      		push r25
 3233 0374 8F93      		push r24
 3234 0376 0E94 0000 		call printf_P
 3235               	.LVL276:
 3236               	.LBB271:
 3237               	.LBB272:
  54:../include/droplet_base.h **** 		free(ptr);
 3238               		.loc 3 54 0
 3239 037a FFB7      		in r31,__SREG__
 3240 037c F983      		std Y+1,r31
 3241               	.LVL277:
 3242               	.LBB273:
 3243               	.LBB274:
  50:c:\program files (x86)\atmel\studio\7.0\toolchain\avr8\avr8-gnu-toolchain\avr\include\util\atomic.h ****     return 1;
 3244               		.loc 4 50 0
 3245               	/* #APP */
 3246               	 ;  50 "c:\program files (x86)\atmel\studio\7.0\toolchain\avr8\avr8-gnu-toolchain\avr\include\util\
 3247 037e F894      		cli
 3248               	 ;  0 "" 2
 3249               	.LVL278:
 3250               	/* #NOAPP */
 3251               	.LBE274:
 3252               	.LBE273:
 3253               		.loc 3 55 0
 3254 0380 C801      		movw r24,r16
 3255 0382 0E94 0000 		call free
 3256               	.LVL279:
 3257               	.LBB275:
 3258               	.LBB276:
  70:c:\program files (x86)\atmel\studio\7.0\toolchain\avr8\avr8-gnu-toolchain\avr\include\util\atomic.h ****     __asm__ volatile ("" ::: "memory");
 3259               		.loc 4 70 0
 3260 0386 2981      		ldd r18,Y+1
 3261 0388 2FBF      		out __SREG__,r18
 3262               	.LVL280:
 3263               		.loc 4 71 0
 3264 038a 0F90      		pop __tmp_reg__
 3265 038c 0F90      		pop __tmp_reg__
 3266 038e 0F90      		pop __tmp_reg__
 3267 0390 0F90      		pop __tmp_reg__
 3268 0392 0F90      		pop __tmp_reg__
 3269 0394 0F90      		pop __tmp_reg__
 3270               	.LVL281:
 3271               	.L91:
 3272               	.LBE276:
 3273               	.LBE275:
 3274               	.LBE272:
 3275               	.LBE271:
 435:../src/localization.c **** 	}
 3276               		.loc 1 435 0
 3277 0396 F801      		movw r30,r16
 3278 0398 808D      		ldd r24,Z+24
 3279 039a 8F5F      		subi r24,lo8(-(1))
 3280 039c 808F      		std Z+24,r24
 438:../src/localization.c **** 
 3281               		.loc 1 438 0
 3282 039e 00C0      		rjmp .L87
 3283               	.LVL282:
 3284               	.L109:
 3285               	.LBB277:
 3286               	.LBB268:
 3287               	.LBB266:
 478:../src/localization.c **** 		totalValue += discreteTriangularPDF(i, randMax, r);
 3288               		.loc 1 478 0
 3289 03a0 212C      		mov r2,__zero_reg__
 3290 03a2 312C      		mov r3,__zero_reg__
 3291               	.LVL283:
 3292               	.L92:
 3293               	.LBE266:
 485:../src/localization.c **** }
 3294               		.loc 1 485 0
 3295 03a4 B101      		movw r22,r2
 3296 03a6 6295      		swap r22
 3297 03a8 7295      		swap r23
 3298 03aa 707F      		andi r23,0xf0
 3299 03ac 7627      		eor r23,r22
 3300 03ae 607F      		andi r22,0xf0
 3301 03b0 7627      		eor r23,r22
 3302 03b2 072E      		mov __tmp_reg__,r23
 3303 03b4 000C      		lsl r0
 3304 03b6 880B      		sbc r24,r24
 3305 03b8 990B      		sbc r25,r25
 3306               	.L107:
 3307               	.LVL284:
 3308               	.LBE268:
 3309               	.LBE277:
 433:../src/localization.c **** 		}
 3310               		.loc 1 433 0
 3311 03ba 9801      		movw r18,r16
 3312 03bc 40E0      		ldi r20,lo8(gs(sendBotMeasMsg))
 3313 03be 50E0      		ldi r21,hi8(gs(sendBotMeasMsg))
 3314 03c0 0E94 0000 		call schedule_task
 3315               	.LVL285:
 3316 03c4 00C0      		rjmp .L91
 3317               	.LVL286:
 3318               	.L128:
 3319               	.LBB278:
 3320               	.LBB269:
 3321               	.LBB267:
 482:../src/localization.c **** 		}
 3322               		.loc 1 482 0
 3323 03c6 FE85      		ldd r31,Y+14
 3324 03c8 8F2F      		mov r24,r31
 3325 03ca 90E0      		ldi r25,0
 3326 03cc A0E0      		ldi r26,0
 3327 03ce B0E0      		ldi r27,0
 3328 03d0 880F      		lsl r24
 3329 03d2 991F      		rol r25
 3330 03d4 AA1F      		rol r26
 3331 03d6 BB1F      		rol r27
 3332 03d8 880F      		lsl r24
 3333 03da 991F      		rol r25
 3334 03dc AA1F      		rol r26
 3335 03de BB1F      		rol r27
 3336 03e0 BC01      		movw r22,r24
 3337 03e2 CD01      		movw r24,r26
 3338 03e4 660F      		lsl r22
 3339 03e6 771F      		rol r23
 3340 03e8 881F      		rol r24
 3341 03ea 991F      		rol r25
 3342 03ec 660F      		lsl r22
 3343 03ee 771F      		rol r23
 3344 03f0 881F      		rol r24
 3345 03f2 991F      		rol r25
 3346 03f4 00C0      		rjmp .L107
 3347               	.LBE267:
 3348               	.LBE269:
 3349               	.LBE278:
 3350               		.cfi_endproc
 3351               	.LFE80:
 3353               		.section	.text.localization_init,"ax",@progbits
 3354               	.global	localization_init
 3356               	localization_init:
 3357               	.LFB64:
  38:../src/localization.c **** 	myPos.x = UNDF;
 3358               		.loc 1 38 0
 3359               		.cfi_startproc
 3360               	/* prologue: function */
 3361               	/* frame size = 0 */
 3362               	/* stack size = 0 */
 3363               	.L__stack_usage = 0
  39:../src/localization.c **** 	myPos.y = UNDF;
 3364               		.loc 1 39 0
 3365 0000 80E0      		ldi r24,0
 3366 0002 90E8      		ldi r25,lo8(-128)
 3367 0004 8093 0000 		sts myPos,r24
 3368 0008 9093 0000 		sts myPos+1,r25
  40:../src/localization.c **** 	myPos.o = UNDF;
 3369               		.loc 1 40 0
 3370 000c 8093 0000 		sts myPos+2,r24
 3371 0010 9093 0000 		sts myPos+2+1,r25
  41:../src/localization.c **** 	for(uint8_t i=0;i<6;i++){
 3372               		.loc 1 41 0
 3373 0014 8093 0000 		sts myPos+4,r24
 3374 0018 9093 0000 		sts myPos+4+1,r25
 3375               	.LVL287:
 3376               	.LBB279:
  43:../src/localization.c **** 	}
 3377               		.loc 1 43 0
 3378 001c 1092 0000 		sts myPosCovar,__zero_reg__
 3379 0020 1092 0000 		sts myPosCovar+1,__zero_reg__
 3380               	.LVL288:
 3381 0024 1092 0000 		sts myPosCovar+2,__zero_reg__
 3382 0028 1092 0000 		sts myPosCovar+2+1,__zero_reg__
 3383               	.LVL289:
 3384 002c 1092 0000 		sts myPosCovar+4,__zero_reg__
 3385 0030 1092 0000 		sts myPosCovar+4+1,__zero_reg__
 3386               	.LVL290:
 3387 0034 1092 0000 		sts myPosCovar+6,__zero_reg__
 3388 0038 1092 0000 		sts myPosCovar+6+1,__zero_reg__
 3389               	.LVL291:
 3390 003c 1092 0000 		sts myPosCovar+8,__zero_reg__
 3391 0040 1092 0000 		sts myPosCovar+8+1,__zero_reg__
 3392               	.LVL292:
 3393 0044 1092 0000 		sts myPosCovar+10,__zero_reg__
 3394 0048 1092 0000 		sts myPosCovar+10+1,__zero_reg__
 3395               	.LVL293:
 3396               	.LBE279:
  45:../src/localization.c **** 	for(uint8_t i=0;i<NUM_SEEDS;i++){
 3397               		.loc 1 45 0
 3398 004c 1092 0000 		sts seedFlag,__zero_reg__
 3399               	.LVL294:
 3400 0050 8091 0000 		lds r24,droplet_ID
 3401 0054 9091 0000 		lds r25,droplet_ID+1
 3402               	.LBB280:
  47:../src/localization.c **** 			seedFlag = 1;
 3403               		.loc 1 47 0
 3404 0058 8F3D      		cpi r24,-33
 3405 005a 2EE7      		ldi r18,126
 3406 005c 9207      		cpc r25,r18
 3407 005e 01F0      		breq .L133
 3408               	.LVL295:
 3409 0060 8136      		cpi r24,97
 3410 0062 23E1      		ldi r18,19
 3411 0064 9207      		cpc r25,r18
 3412 0066 01F0      		breq .L134
 3413               	.LVL296:
 3414 0068 8636      		cpi r24,102
 3415 006a 2CE6      		ldi r18,108
 3416 006c 9207      		cpc r25,r18
 3417 006e 01F0      		breq .L135
 3418               	.LVL297:
 3419 0070 8936      		cpi r24,105
 3420 0072 9649      		sbci r25,-106
 3421 0074 01F0      		breq .L136
 3422 0076 0895      		ret
 3423               	.L136:
  46:../src/localization.c **** 		if(get_droplet_id()==SEED_IDS[i]){
 3424               		.loc 1 46 0
 3425 0078 83E0      		ldi r24,lo8(3)
 3426               	.LVL298:
 3427               	.L131:
  47:../src/localization.c **** 			seedFlag = 1;
 3428               		.loc 1 47 0
 3429 007a 90E0      		ldi r25,0
  48:../src/localization.c **** 			myPos.x = SEED_POS[i].x;
 3430               		.loc 1 48 0
 3431 007c 21E0      		ldi r18,lo8(1)
 3432 007e 2093 0000 		sts seedFlag,r18
  49:../src/localization.c **** 			myPos.y = SEED_POS[i].y;
 3433               		.loc 1 49 0
 3434 0082 FC01      		movw r30,r24
 3435 0084 EE0F      		lsl r30
 3436 0086 FF1F      		rol r31
 3437 0088 E80F      		add r30,r24
 3438 008a F91F      		adc r31,r25
 3439 008c EE0F      		lsl r30
 3440 008e FF1F      		rol r31
 3441 0090 E050      		subi r30,lo8(-(SEED_POS))
 3442 0092 F040      		sbci r31,hi8(-(SEED_POS))
 3443 0094 8081      		ld r24,Z
 3444 0096 9181      		ldd r25,Z+1
 3445 0098 8093 0000 		sts myPos,r24
 3446 009c 9093 0000 		sts myPos+1,r25
  50:../src/localization.c **** 			myPos.o = SEED_POS[i].o;
 3447               		.loc 1 50 0
 3448 00a0 8281      		ldd r24,Z+2
 3449 00a2 9381      		ldd r25,Z+3
 3450 00a4 8093 0000 		sts myPos+2,r24
 3451 00a8 9093 0000 		sts myPos+2+1,r25
  51:../src/localization.c **** 			myPosCovar[0].u = 1; //the actual value used will be this*8
 3452               		.loc 1 51 0
 3453 00ac 8481      		ldd r24,Z+4
 3454 00ae 9581      		ldd r25,Z+5
 3455 00b0 8093 0000 		sts myPos+4,r24
 3456 00b4 9093 0000 		sts myPos+4+1,r25
  52:../src/localization.c **** 			myPosCovar[3].u = 1; //the actual value used will be this*8
 3457               		.loc 1 52 0
 3458 00b8 81E0      		ldi r24,lo8(1)
 3459 00ba 90E0      		ldi r25,0
 3460 00bc 8093 0000 		sts myPosCovar,r24
 3461 00c0 9093 0000 		sts myPosCovar+1,r25
  53:../src/localization.c **** 			myPosCovar[5].u = 16; //the actual value used will be this/256
 3462               		.loc 1 53 0
 3463 00c4 8093 0000 		sts myPosCovar+6,r24
 3464 00c8 9093 0000 		sts myPosCovar+6+1,r25
  54:../src/localization.c **** 			break;
 3465               		.loc 1 54 0
 3466 00cc 80E1      		ldi r24,lo8(16)
 3467 00ce 90E0      		ldi r25,0
 3468 00d0 8093 0000 		sts myPosCovar+10,r24
 3469 00d4 9093 0000 		sts myPosCovar+10+1,r25
 3470 00d8 0895      		ret
 3471               	.LVL299:
 3472               	.L133:
  46:../src/localization.c **** 		if(get_droplet_id()==SEED_IDS[i]){
 3473               		.loc 1 46 0
 3474 00da 80E0      		ldi r24,0
 3475 00dc 00C0      		rjmp .L131
 3476               	.LVL300:
 3477               	.L134:
 3478 00de 81E0      		ldi r24,lo8(1)
 3479 00e0 00C0      		rjmp .L131
 3480               	.LVL301:
 3481               	.L135:
 3482 00e2 82E0      		ldi r24,lo8(2)
 3483 00e4 00C0      		rjmp .L131
 3484               	.LBE280:
 3485               		.cfi_endproc
 3486               	.LFE64:
 3488               		.section	.text.relativePosition,"ax",@progbits
 3489               	.global	relativePosition
 3491               	relativePosition:
 3492               	.LFB72:
 258:../src/localization.c **** 	Vector x_you = {pos->x, pos->y, deg_to_rad(pos->o)};
 3493               		.loc 1 258 0
 3494               		.cfi_startproc
 3495               	.LVL302:
 3496 0000 4F92      		push r4
 3497               	.LCFI102:
 3498               		.cfi_def_cfa_offset 4
 3499               		.cfi_offset 4, -3
 3500 0002 5F92      		push r5
 3501               	.LCFI103:
 3502               		.cfi_def_cfa_offset 5
 3503               		.cfi_offset 5, -4
 3504 0004 6F92      		push r6
 3505               	.LCFI104:
 3506               		.cfi_def_cfa_offset 6
 3507               		.cfi_offset 6, -5
 3508 0006 7F92      		push r7
 3509               	.LCFI105:
 3510               		.cfi_def_cfa_offset 7
 3511               		.cfi_offset 7, -6
 3512 0008 AF92      		push r10
 3513               	.LCFI106:
 3514               		.cfi_def_cfa_offset 8
 3515               		.cfi_offset 10, -7
 3516 000a BF92      		push r11
 3517               	.LCFI107:
 3518               		.cfi_def_cfa_offset 9
 3519               		.cfi_offset 11, -8
 3520 000c CF92      		push r12
 3521               	.LCFI108:
 3522               		.cfi_def_cfa_offset 10
 3523               		.cfi_offset 12, -9
 3524 000e DF92      		push r13
 3525               	.LCFI109:
 3526               		.cfi_def_cfa_offset 11
 3527               		.cfi_offset 13, -10
 3528 0010 EF92      		push r14
 3529               	.LCFI110:
 3530               		.cfi_def_cfa_offset 12
 3531               		.cfi_offset 14, -11
 3532 0012 FF92      		push r15
 3533               	.LCFI111:
 3534               		.cfi_def_cfa_offset 13
 3535               		.cfi_offset 15, -12
 3536 0014 0F93      		push r16
 3537               	.LCFI112:
 3538               		.cfi_def_cfa_offset 14
 3539               		.cfi_offset 16, -13
 3540 0016 1F93      		push r17
 3541               	.LCFI113:
 3542               		.cfi_def_cfa_offset 15
 3543               		.cfi_offset 17, -14
 3544 0018 CF93      		push r28
 3545               	.LCFI114:
 3546               		.cfi_def_cfa_offset 16
 3547               		.cfi_offset 28, -15
 3548 001a DF93      		push r29
 3549               	.LCFI115:
 3550               		.cfi_def_cfa_offset 17
 3551               		.cfi_offset 29, -16
 3552 001c CDB7      		in r28,__SP_L__
 3553 001e DEB7      		in r29,__SP_H__
 3554               	.LCFI116:
 3555               		.cfi_def_cfa_register 28
 3556 0020 CC56      		subi r28,108
 3557 0022 D109      		sbc r29,__zero_reg__
 3558               	.LCFI117:
 3559               		.cfi_def_cfa_offset 125
 3560 0024 CDBF      		out __SP_L__,r28
 3561 0026 DEBF      		out __SP_H__,r29
 3562               	/* prologue: function */
 3563               	/* frame size = 108 */
 3564               	/* stack size = 122 */
 3565               	.L__stack_usage = 122
 3566 0028 6C01      		movw r12,r24
 3567 002a 7B01      		movw r14,r22
 3568 002c 5A01      		movw r10,r20
 3569 002e 3901      		movw r6,r18
 259:../src/localization.c **** 	int16_t otherBotB;
 3570               		.loc 1 259 0
 3571 0030 F901      		movw r30,r18
 3572 0032 6081      		ld r22,Z
 3573 0034 7181      		ldd r23,Z+1
 3574               	.LVL303:
 3575 0036 072E      		mov __tmp_reg__,r23
 3576 0038 000C      		lsl r0
 3577 003a 880B      		sbc r24,r24
 3578 003c 990B      		sbc r25,r25
 3579 003e 0E94 0000 		call __floatsisf
 3580               	.LVL304:
 3581 0042 A596      		adiw r28,97-60
 3582 0044 6CAF      		std Y+60,r22
 3583 0046 7DAF      		std Y+61,r23
 3584 0048 8EAF      		std Y+62,r24
 3585 004a 9FAF      		std Y+63,r25
 3586 004c A597      		sbiw r28,97-60
 3587 004e F301      		movw r30,r6
 3588 0050 6281      		ldd r22,Z+2
 3589 0052 7381      		ldd r23,Z+3
 3590 0054 072E      		mov __tmp_reg__,r23
 3591 0056 000C      		lsl r0
 3592 0058 880B      		sbc r24,r24
 3593 005a 990B      		sbc r25,r25
 3594 005c 0E94 0000 		call __floatsisf
 3595               	.LVL305:
 3596 0060 A996      		adiw r28,101-60
 3597 0062 6CAF      		std Y+60,r22
 3598 0064 7DAF      		std Y+61,r23
 3599 0066 8EAF      		std Y+62,r24
 3600 0068 9FAF      		std Y+63,r25
 3601 006a A997      		sbiw r28,101-60
 3602               	.LVL306:
 3603               	.LBB299:
 3604               	.LBB300:
 3605               		.loc 2 82 0
 3606 006c F301      		movw r30,r6
 3607 006e 6481      		ldd r22,Z+4
 3608 0070 7581      		ldd r23,Z+5
 3609 0072 072E      		mov __tmp_reg__,r23
 3610 0074 000C      		lsl r0
 3611 0076 880B      		sbc r24,r24
 3612 0078 990B      		sbc r25,r25
 3613 007a 0E94 0000 		call __floatsisf
 3614               	.LVL307:
 3615 007e 20E0      		ldi r18,0
 3616 0080 30E0      		ldi r19,0
 3617 0082 44E3      		ldi r20,lo8(52)
 3618 0084 53E4      		ldi r21,lo8(67)
 3619 0086 0E94 0000 		call __divsf3
 3620               	.LVL308:
 3621 008a 2BED      		ldi r18,lo8(-37)
 3622 008c 3FE0      		ldi r19,lo8(15)
 3623 008e 49E4      		ldi r20,lo8(73)
 3624 0090 50E4      		ldi r21,lo8(64)
 3625 0092 0E94 0000 		call __mulsf3
 3626               	.LVL309:
 3627 0096 2B01      		movw r4,r22
 3628 0098 3C01      		movw r6,r24
 3629               	.LVL310:
 3630               	.LBB301:
 3631               	.LBB302:
  74:../include/range_algs.h **** }
 3632               		.loc 2 74 0
 3633 009a 20E0      		ldi r18,0
 3634 009c 30E0      		ldi r19,0
 3635 009e A901      		movw r20,r18
 3636 00a0 0E94 0000 		call __gesf2
 3637               	.LVL311:
 3638 00a4 2BED      		ldi r18,lo8(-37)
 3639 00a6 3FE0      		ldi r19,lo8(15)
 3640 00a8 49E4      		ldi r20,lo8(73)
 3641 00aa 50E4      		ldi r21,lo8(64)
 3642 00ac 87FD      		sbrc r24,7
 3643 00ae 00C0      		rjmp .L152
 3644 00b0 C301      		movw r24,r6
 3645 00b2 B201      		movw r22,r4
 3646 00b4 0E94 0000 		call __addsf3
 3647               	.LVL312:
 3648 00b8 2BED      		ldi r18,lo8(-37)
 3649 00ba 3FE0      		ldi r19,lo8(15)
 3650 00bc 49EC      		ldi r20,lo8(-55)
 3651 00be 50E4      		ldi r21,lo8(64)
 3652 00c0 0E94 0000 		call fmod
 3653               	.LVL313:
 3654 00c4 2BED      		ldi r18,lo8(-37)
 3655 00c6 3FE0      		ldi r19,lo8(15)
 3656 00c8 49E4      		ldi r20,lo8(73)
 3657 00ca 50E4      		ldi r21,lo8(64)
 3658 00cc 0E94 0000 		call __subsf3
 3659               	.LVL314:
 3660 00d0 2B01      		movw r4,r22
 3661 00d2 3C01      		movw r6,r24
 3662               	.LVL315:
 3663               	.L140:
 3664               	.LBE302:
 3665               	.LBE301:
 3666               	.LBE300:
 3667               	.LBE299:
 259:../src/localization.c **** 	int16_t otherBotB;
 3668               		.loc 1 259 0
 3669 00d4 AD96      		adiw r28,105-60
 3670 00d6 4CAE      		std Y+60,r4
 3671 00d8 5DAE      		std Y+61,r5
 3672 00da 6EAE      		std Y+62,r6
 3673 00dc 7FAE      		std Y+63,r7
 3674 00de AD97      		sbiw r28,105-60
 3675               	.LVL316:
 3676               	.LBB306:
 3677               	.LBB307:
 3678               		.file 5 "../include/localization.h"
   1:../include/localization.h **** #pragma once
   2:../include/localization.h **** #include "droplet_base.h"
   3:../include/localization.h **** #include "matrix_utils.h"
   4:../include/localization.h **** #include "range_algs.h"
   5:../include/localization.h **** 
   6:../include/localization.h **** #define BOT_MEAS_MSG_DUR		72
   7:../include/localization.h **** #define LOCALIZATION_DUR (RNB_DUR + BOT_MEAS_MSG_DUR*2)
   8:../include/localization.h **** 
   9:../include/localization.h **** #define POS_CALC_DEBUG_MODE
  10:../include/localization.h **** #define POS_MSG_DEBUG_MODE
  11:../include/localization.h **** #define MY_POS_DEBUG_MODE
  12:../include/localization.h **** //#define COVAR_DEBUG_MODE
  13:../include/localization.h **** 
  14:../include/localization.h **** #ifdef POS_CALC_DEBUG_MODE
  15:../include/localization.h **** #define POS_CALC_DEBUG_PRINT(format, ...) printf_P(PSTR(format), ##__VA_ARGS__)
  16:../include/localization.h **** #else
  17:../include/localization.h **** #define POS_CALC_DEBUG_PRINT(format, ...)
  18:../include/localization.h **** #endif
  19:../include/localization.h **** 
  20:../include/localization.h **** #ifdef POS_MSG_DEBUG_MODE
  21:../include/localization.h **** #define POS_MSG_DEBUG_PRINT(format, ...) printf_P(PSTR(format), ##__VA_ARGS__)
  22:../include/localization.h **** #else
  23:../include/localization.h **** #define POS_MSG_DEBUG_PRINT(format, ...)
  24:../include/localization.h **** #endif
  25:../include/localization.h **** 
  26:../include/localization.h **** #ifdef MY_POS_DEBUG_MODE
  27:../include/localization.h **** #define MY_POS_DEBUG_PRINT(format, ...) printf_P(PSTR(format), ##__VA_ARGS__)
  28:../include/localization.h **** #else
  29:../include/localization.h **** #define MY_POS_DEBUG_PRINT(format, ...)
  30:../include/localization.h **** #endif
  31:../include/localization.h **** 
  32:../include/localization.h **** #define UNDF	((int16_t)0x8000)
  33:../include/localization.h **** #define POS_DEFINED(pos) ((((pos)->x)!=UNDF)&&(((pos)->y)!=UNDF)&&(((pos)->o)!=UNDF))
  34:../include/localization.h **** 
  35:../include/localization.h **** #define BOT_MEAS_MSG_FLAG		'X'
  36:../include/localization.h **** 
  37:../include/localization.h **** typedef union flex_byte_union{
  38:../include/localization.h **** 	uint16_t u;
  39:../include/localization.h **** 	int16_t d;
  40:../include/localization.h **** }FlexByte;
  41:../include/localization.h **** 
  42:../include/localization.h **** typedef FlexByte DensePosCovar[6];
  43:../include/localization.h **** 
  44:../include/localization.h **** typedef struct bot_pos_struct{
  45:../include/localization.h **** 	int16_t x;
  46:../include/localization.h **** 	int16_t y;
  47:../include/localization.h **** 	int16_t o;
  48:../include/localization.h **** } BotPos;
  49:../include/localization.h **** 
  50:../include/localization.h **** typedef struct bot_meas_msg_struct{
  51:../include/localization.h **** 	BotPos pos; //6 bytes
  52:../include/localization.h **** 	DensePosCovar covar; //12 bytes
  53:../include/localization.h **** 	char flag;
  54:../include/localization.h **** }BotMeasMsg;
  55:../include/localization.h **** 
  56:../include/localization.h **** typedef struct bot_meas_msg_node_struct{
  57:../include/localization.h **** 	BotMeasMsg msg;
  58:../include/localization.h **** 	id_t tgt;
  59:../include/localization.h **** 	uint16_t range;
  60:../include/localization.h **** 	uint8_t dirMask;
  61:../include/localization.h **** 	uint8_t numTries;
  62:../include/localization.h **** }BotMeasMsgNode;
  63:../include/localization.h **** 
  64:../include/localization.h **** typedef struct bot_meas_struct{
  65:../include/localization.h **** 	id_t id;
  66:../include/localization.h **** 	uint16_t r;
  67:../include/localization.h **** 	int16_t b;
  68:../include/localization.h **** 	int16_t h;
  69:../include/localization.h **** } BotMeas;
  70:../include/localization.h **** 
  71:../include/localization.h **** BotPos        myPos;
  72:../include/localization.h **** DensePosCovar myPosCovar;
  73:../include/localization.h **** uint8_t		  seedFlag;
  74:../include/localization.h **** 
  75:../include/localization.h **** void	localization_init(void);
  76:../include/localization.h **** void	useRNBmeas(id_t id, uint16_t r, int16_t b, int16_t h);
  77:../include/localization.h **** void	handleBotMeasMsg(BotMeasMsg* msg, id_t senderID __attribute__ ((unused)));
  78:../include/localization.h **** 
  79:../include/localization.h **** //WARNING! This function hasn't yet been implemented; it's a stub to serve as a reminder/framework 
  80:../include/localization.h **** void	updateForMovement(uint8_t dir, uint16_t mag);
  81:../include/localization.h **** 
  82:../include/localization.h **** /*
  83:../include/localization.h ****  * r, b, h  -  Should be a range and bearing measurement this robot took.
  84:../include/localization.h ****  * pos		-  Should point to the position (in global coordinate system) of the measured robot.
  85:../include/localization.h ****  * myPos    -  The resulting position will be stored in the Vector this points to.
  86:../include/localization.h ****  */
  87:../include/localization.h **** void	relativePosition(uint16_t r, int16_t b, int16_t h, BotPos* pos, Vector* myPos);
  88:../include/localization.h **** 
  89:../include/localization.h **** void	getPosColor(uint8_t* r, uint8_t* g, uint8_t* b);
  90:../include/localization.h **** void	printPosCovar(DensePosCovar* denseP);
  91:../include/localization.h **** void	sendBotMeasMsg(BotMeasMsgNode* mNode);
  92:../include/localization.h **** 
  93:../include/localization.h **** inline uint8_t dirFromAngle(int16_t angle){
  94:../include/localization.h **** 	return abs((angle - (angle>0 ? 360 : 0))/60);
  95:../include/localization.h **** }
  96:../include/localization.h **** 
  97:../include/localization.h **** //This function converts a measurement from the measuring robot's perspective to the measured robot
  98:../include/localization.h **** inline void convertMeas(int16_t* newB, int16_t* newH, int16_t b, int16_t h){
  99:../include/localization.h **** 	*newB = pretty_angle_deg(b-h-180);
 3679               		.loc 5 99 0
 3680 00e0 C701      		movw r24,r14
 3681 00e2 8A19      		sub r24,r10
 3682 00e4 9B09      		sbc r25,r11
 3683               	.LVL317:
 3684               	.LBB308:
 3685               	.LBB309:
  70:../include/range_algs.h **** }
 3686               		.loc 2 70 0
 3687 00e6 843B      		cpi r24,-76
 3688 00e8 9105      		cpc r25,__zero_reg__
 3689 00ea 04F4      		brge .+2
 3690 00ec 00C0      		rjmp .L141
 3691 00ee 68E6      		ldi r22,lo8(104)
 3692 00f0 71E0      		ldi r23,lo8(1)
 3693 00f2 0E94 0000 		call __divmodhi4
 3694               	.LVL318:
 3695 00f6 7C01      		movw r14,r24
 3696               	.LVL319:
 3697 00f8 F4EB      		ldi r31,-76
 3698 00fa EF1A      		sub r14,r31
 3699 00fc F108      		sbc r15,__zero_reg__
 3700               	.L142:
 3701               	.LVL320:
 3702               	.LBE309:
 3703               	.LBE308:
 3704               	.LBE307:
 3705               	.LBE306:
 263:../src/localization.c **** 	Matrix G;
 3706               		.loc 1 263 0
 3707 00fe B601      		movw r22,r12
 3708 0100 80E0      		ldi r24,0
 3709 0102 90E0      		ldi r25,0
 3710 0104 0E94 0000 		call __floatunsisf
 3711               	.LVL321:
 3712 0108 6996      		adiw r28,85-60
 3713 010a 6CAF      		std Y+60,r22
 3714 010c 7DAF      		std Y+61,r23
 3715 010e 8EAF      		std Y+62,r24
 3716 0110 9FAF      		std Y+63,r25
 3717 0112 6997      		sbiw r28,85-60
 3718               	.LVL322:
 3719               	.LBB313:
 3720               	.LBB314:
 3721               		.loc 2 82 0
 3722 0114 B701      		movw r22,r14
 3723 0116 665A      		subi r22,-90
 3724 0118 7F4F      		sbci r23,-1
 3725 011a 072E      		mov __tmp_reg__,r23
 3726 011c 000C      		lsl r0
 3727 011e 880B      		sbc r24,r24
 3728 0120 990B      		sbc r25,r25
 3729 0122 0E94 0000 		call __floatsisf
 3730               	.LVL323:
 3731 0126 20E0      		ldi r18,0
 3732 0128 30E0      		ldi r19,0
 3733 012a 44E3      		ldi r20,lo8(52)
 3734 012c 53E4      		ldi r21,lo8(67)
 3735 012e 0E94 0000 		call __divsf3
 3736               	.LVL324:
 3737 0132 2BED      		ldi r18,lo8(-37)
 3738 0134 3FE0      		ldi r19,lo8(15)
 3739 0136 49E4      		ldi r20,lo8(73)
 3740 0138 50E4      		ldi r21,lo8(64)
 3741 013a 0E94 0000 		call __mulsf3
 3742               	.LVL325:
 3743 013e 6B01      		movw r12,r22
 3744 0140 7C01      		movw r14,r24
 3745               	.LVL326:
 3746               	.LBB315:
 3747               	.LBB316:
  74:../include/range_algs.h **** }
 3748               		.loc 2 74 0
 3749 0142 20E0      		ldi r18,0
 3750 0144 30E0      		ldi r19,0
 3751 0146 A901      		movw r20,r18
 3752 0148 0E94 0000 		call __gesf2
 3753               	.LVL327:
 3754 014c 2BED      		ldi r18,lo8(-37)
 3755 014e 3FE0      		ldi r19,lo8(15)
 3756 0150 49E4      		ldi r20,lo8(73)
 3757 0152 50E4      		ldi r21,lo8(64)
 3758 0154 87FD      		sbrc r24,7
 3759 0156 00C0      		rjmp .L153
 3760 0158 C701      		movw r24,r14
 3761 015a B601      		movw r22,r12
 3762 015c 0E94 0000 		call __addsf3
 3763               	.LVL328:
 3764 0160 2BED      		ldi r18,lo8(-37)
 3765 0162 3FE0      		ldi r19,lo8(15)
 3766 0164 49EC      		ldi r20,lo8(-55)
 3767 0166 50E4      		ldi r21,lo8(64)
 3768 0168 0E94 0000 		call fmod
 3769               	.LVL329:
 3770 016c 2BED      		ldi r18,lo8(-37)
 3771 016e 3FE0      		ldi r19,lo8(15)
 3772 0170 49E4      		ldi r20,lo8(73)
 3773 0172 50E4      		ldi r21,lo8(64)
 3774 0174 0E94 0000 		call __subsf3
 3775               	.LVL330:
 3776               	.L145:
 3777               	.LBE316:
 3778               	.LBE315:
 3779               	.LBE314:
 3780               	.LBE313:
 263:../src/localization.c **** 	Matrix G;
 3781               		.loc 1 263 0
 3782 0178 6D96      		adiw r28,89-60
 3783 017a 6CAF      		std Y+60,r22
 3784 017c 7DAF      		std Y+61,r23
 3785 017e 8EAF      		std Y+62,r24
 3786 0180 9FAF      		std Y+63,r25
 3787 0182 6D97      		sbiw r28,89-60
 3788               	.LVL331:
 3789               	.LBB320:
 3790               	.LBB321:
 3791               		.loc 2 82 0
 3792 0184 6AE5      		ldi r22,lo8(90)
 3793 0186 70E0      		ldi r23,0
 3794 0188 6A19      		sub r22,r10
 3795 018a 7B09      		sbc r23,r11
 3796 018c 072E      		mov __tmp_reg__,r23
 3797 018e 000C      		lsl r0
 3798 0190 880B      		sbc r24,r24
 3799 0192 990B      		sbc r25,r25
 3800 0194 0E94 0000 		call __floatsisf
 3801               	.LVL332:
 3802 0198 20E0      		ldi r18,0
 3803 019a 30E0      		ldi r19,0
 3804 019c 44E3      		ldi r20,lo8(52)
 3805 019e 53E4      		ldi r21,lo8(67)
 3806 01a0 0E94 0000 		call __divsf3
 3807               	.LVL333:
 3808 01a4 2BED      		ldi r18,lo8(-37)
 3809 01a6 3FE0      		ldi r19,lo8(15)
 3810 01a8 49E4      		ldi r20,lo8(73)
 3811 01aa 50E4      		ldi r21,lo8(64)
 3812 01ac 0E94 0000 		call __mulsf3
 3813               	.LVL334:
 3814 01b0 6B01      		movw r12,r22
 3815 01b2 7C01      		movw r14,r24
 3816               	.LVL335:
 3817               	.LBB322:
 3818               	.LBB323:
  74:../include/range_algs.h **** }
 3819               		.loc 2 74 0
 3820 01b4 20E0      		ldi r18,0
 3821 01b6 30E0      		ldi r19,0
 3822 01b8 A901      		movw r20,r18
 3823 01ba 0E94 0000 		call __gesf2
 3824               	.LVL336:
 3825 01be 2BED      		ldi r18,lo8(-37)
 3826 01c0 3FE0      		ldi r19,lo8(15)
 3827 01c2 49E4      		ldi r20,lo8(73)
 3828 01c4 50E4      		ldi r21,lo8(64)
 3829 01c6 87FD      		sbrc r24,7
 3830 01c8 00C0      		rjmp .L154
 3831 01ca C701      		movw r24,r14
 3832 01cc B601      		movw r22,r12
 3833 01ce 0E94 0000 		call __addsf3
 3834               	.LVL337:
 3835 01d2 2BED      		ldi r18,lo8(-37)
 3836 01d4 3FE0      		ldi r19,lo8(15)
 3837 01d6 49EC      		ldi r20,lo8(-55)
 3838 01d8 50E4      		ldi r21,lo8(64)
 3839 01da 0E94 0000 		call fmod
 3840               	.LVL338:
 3841 01de 2BED      		ldi r18,lo8(-37)
 3842 01e0 3FE0      		ldi r19,lo8(15)
 3843 01e2 49E4      		ldi r20,lo8(73)
 3844 01e4 50E4      		ldi r21,lo8(64)
 3845 01e6 0E94 0000 		call __subsf3
 3846               	.LVL339:
 3847               	.L148:
 3848               	.LBE323:
 3849               	.LBE322:
 3850               	.LBE321:
 3851               	.LBE320:
 263:../src/localization.c **** 	Matrix G;
 3852               		.loc 1 263 0
 3853 01ea A196      		adiw r28,93-60
 3854 01ec 6CAF      		std Y+60,r22
 3855 01ee 7DAF      		std Y+61,r23
 3856 01f0 8EAF      		std Y+62,r24
 3857 01f2 9FAF      		std Y+63,r25
 3858 01f4 A197      		sbiw r28,93-60
 3859               	.LVL340:
 3860               	.LBB327:
 3861               	.LBB328:
 276:../src/localization.c **** 	float sinO = sin((*pos)[2]);
 3862               		.loc 1 276 0
 3863 01f6 C301      		movw r24,r6
 3864 01f8 B201      		movw r22,r4
 3865 01fa 0E94 0000 		call cos
 3866               	.LVL341:
 3867 01fe 6B01      		movw r12,r22
 3868 0200 7C01      		movw r14,r24
 3869               	.LVL342:
 277:../src/localization.c **** 	(*G)[0][0] = cosO;    (*G)[0][1] = -sinO;    (*G)[0][2] = 0;
 3870               		.loc 1 277 0
 3871 0202 C301      		movw r24,r6
 3872 0204 B201      		movw r22,r4
 3873 0206 0E94 0000 		call sin
 3874               	.LVL343:
 278:../src/localization.c **** 	(*G)[1][0] = sinO;    (*G)[1][1] =  cosO;    (*G)[1][2] = 0;
 3875               		.loc 1 278 0
 3876 020a CDA2      		std Y+37,r12
 3877 020c DEA2      		std Y+38,r13
 3878 020e EFA2      		std Y+39,r14
 3879 0210 F8A6      		std Y+40,r15
 3880 0212 2B01      		movw r4,r22
 3881 0214 3C01      		movw r6,r24
 3882 0216 77FA      		bst r7,7
 3883 0218 7094      		com r7
 3884 021a 77F8      		bld r7,7
 3885 021c 7094      		com r7
 3886 021e 49A6      		std Y+41,r4
 3887 0220 5AA6      		std Y+42,r5
 3888 0222 6BA6      		std Y+43,r6
 3889 0224 7CA6      		std Y+44,r7
 3890 0226 1DA6      		std Y+45,__zero_reg__
 3891 0228 1EA6      		std Y+46,__zero_reg__
 3892 022a 1FA6      		std Y+47,__zero_reg__
 3893 022c 18AA      		std Y+48,__zero_reg__
 279:../src/localization.c **** 	(*G)[2][0] = 0;       (*G)[2][1] = 0;        (*G)[2][2] = 1;
 3894               		.loc 1 279 0
 3895 022e 69AB      		std Y+49,r22
 3896 0230 7AAB      		std Y+50,r23
 3897 0232 8BAB      		std Y+51,r24
 3898 0234 9CAB      		std Y+52,r25
 3899 0236 CDAA      		std Y+53,r12
 3900 0238 DEAA      		std Y+54,r13
 3901 023a EFAA      		std Y+55,r14
 3902 023c F8AE      		std Y+56,r15
 3903 023e 19AE      		std Y+57,__zero_reg__
 3904 0240 1AAE      		std Y+58,__zero_reg__
 3905 0242 1BAE      		std Y+59,__zero_reg__
 3906 0244 1CAE      		std Y+60,__zero_reg__
 280:../src/localization.c **** }
 3907               		.loc 1 280 0
 3908 0246 2196      		adiw r28,61-60
 3909 0248 1CAE      		std Y+60,__zero_reg__
 3910 024a 1DAE      		std Y+61,__zero_reg__
 3911 024c 1EAE      		std Y+62,__zero_reg__
 3912 024e 1FAE      		std Y+63,__zero_reg__
 3913 0250 2197      		sbiw r28,61-60
 3914 0252 2596      		adiw r28,65-60
 3915 0254 1CAE      		std Y+60,__zero_reg__
 3916 0256 1DAE      		std Y+61,__zero_reg__
 3917 0258 1EAE      		std Y+62,__zero_reg__
 3918 025a 1FAE      		std Y+63,__zero_reg__
 3919 025c 2597      		sbiw r28,65-60
 3920 025e 80E0      		ldi r24,0
 3921 0260 90E0      		ldi r25,0
 3922 0262 A0E8      		ldi r26,lo8(-128)
 3923 0264 BFE3      		ldi r27,lo8(63)
 3924 0266 2996      		adiw r28,69-60
 3925 0268 8CAF      		std Y+60,r24
 3926 026a 9DAF      		std Y+61,r25
 3927 026c AEAF      		std Y+62,r26
 3928 026e BFAF      		std Y+63,r27
 3929 0270 2997      		sbiw r28,69-60
 3930               	.LVL344:
 3931               	.LBE328:
 3932               	.LBE327:
 267:../src/localization.c **** 	Matrix R;
 3933               		.loc 1 267 0
 3934 0272 BE01      		movw r22,r28
 3935 0274 6B5A      		subi r22,-85
 3936 0276 7F4F      		sbci r23,-1
 3937 0278 CE01      		movw r24,r28
 3938 027a 875B      		subi r24,-73
 3939 027c 9F4F      		sbci r25,-1
 3940 027e 0E94 0000 		call calcRelativePose
 3941               	.LVL345:
 269:../src/localization.c **** 	
 3942               		.loc 1 269 0
 3943 0282 45E5      		ldi r20,lo8(85)
 3944 0284 50E0      		ldi r21,0
 3945 0286 4C0F      		add r20,r28
 3946 0288 5D1F      		adc r21,r29
 3947 028a 4C5F      		subi r20,-4
 3948 028c 5F4F      		sbci r21,-1
 3949 028e BE01      		movw r22,r28
 3950 0290 6B5A      		subi r22,-85
 3951 0292 7F4F      		sbci r23,-1
 3952 0294 CE01      		movw r24,r28
 3953 0296 0196      		adiw r24,1
 3954 0298 0E94 0000 		call getMeasCovar.isra.3
 3955               	.LVL346:
 271:../src/localization.c **** 	vectorAdd(myPos, &x_you, myPos);		
 3956               		.loc 1 271 0
 3957 029c AE01      		movw r20,r28
 3958 029e 475B      		subi r20,-73
 3959 02a0 5F4F      		sbci r21,-1
 3960 02a2 BE01      		movw r22,r28
 3961 02a4 6B5D      		subi r22,-37
 3962 02a6 7F4F      		sbci r23,-1
 3963 02a8 C801      		movw r24,r16
 3964 02aa 0E94 0000 		call matrixTimesVector
 3965               	.LVL347:
 272:../src/localization.c **** }
 3966               		.loc 1 272 0
 3967 02ae A801      		movw r20,r16
 3968 02b0 BE01      		movw r22,r28
 3969 02b2 6F59      		subi r22,-97
 3970 02b4 7F4F      		sbci r23,-1
 3971 02b6 C801      		movw r24,r16
 3972 02b8 0E94 0000 		call vectorAdd
 3973               	.LVL348:
 3974               	/* epilogue start */
 273:../src/localization.c **** 
 3975               		.loc 1 273 0
 3976 02bc C459      		subi r28,-108
 3977 02be DF4F      		sbci r29,-1
 3978 02c0 CDBF      		out __SP_L__,r28
 3979 02c2 DEBF      		out __SP_H__,r29
 3980 02c4 DF91      		pop r29
 3981 02c6 CF91      		pop r28
 3982 02c8 1F91      		pop r17
 3983 02ca 0F91      		pop r16
 3984               	.LVL349:
 3985 02cc FF90      		pop r15
 3986 02ce EF90      		pop r14
 3987 02d0 DF90      		pop r13
 3988 02d2 CF90      		pop r12
 3989 02d4 BF90      		pop r11
 3990 02d6 AF90      		pop r10
 3991               	.LVL350:
 3992 02d8 7F90      		pop r7
 3993 02da 6F90      		pop r6
 3994               	.LVL351:
 3995 02dc 5F90      		pop r5
 3996 02de 4F90      		pop r4
 3997 02e0 0895      		ret
 3998               	.LVL352:
 3999               	.L141:
 4000               	.LBB329:
 4001               	.LBB312:
 4002               	.LBB311:
 4003               	.LBB310:
  70:../include/range_algs.h **** }
 4004               		.loc 2 70 0
 4005 02e2 8856      		subi r24,104
 4006 02e4 9140      		sbci r25,1
 4007               	.LVL353:
 4008 02e6 68E6      		ldi r22,lo8(104)
 4009 02e8 71E0      		ldi r23,lo8(1)
 4010 02ea 0E94 0000 		call __divmodhi4
 4011               	.LVL354:
 4012 02ee 7C01      		movw r14,r24
 4013               	.LVL355:
 4014 02f0 24EB      		ldi r18,-76
 4015 02f2 E20E      		add r14,r18
 4016 02f4 F11C      		adc r15,__zero_reg__
 4017 02f6 00C0      		rjmp .L142
 4018               	.LVL356:
 4019               	.L154:
 4020               	.LBE310:
 4021               	.LBE311:
 4022               	.LBE312:
 4023               	.LBE329:
 4024               	.LBB330:
 4025               	.LBB326:
 4026               	.LBB325:
 4027               	.LBB324:
  74:../include/range_algs.h **** }
 4028               		.loc 2 74 0
 4029 02f8 C701      		movw r24,r14
 4030 02fa B601      		movw r22,r12
 4031 02fc 0E94 0000 		call __subsf3
 4032               	.LVL357:
 4033 0300 2BED      		ldi r18,lo8(-37)
 4034 0302 3FE0      		ldi r19,lo8(15)
 4035 0304 49EC      		ldi r20,lo8(-55)
 4036 0306 50E4      		ldi r21,lo8(64)
 4037 0308 0E94 0000 		call fmod
 4038               	.LVL358:
 4039 030c 2BED      		ldi r18,lo8(-37)
 4040 030e 3FE0      		ldi r19,lo8(15)
 4041 0310 49E4      		ldi r20,lo8(73)
 4042 0312 50E4      		ldi r21,lo8(64)
 4043 0314 0E94 0000 		call __addsf3
 4044               	.LVL359:
 4045 0318 00C0      		rjmp .L148
 4046               	.LVL360:
 4047               	.L153:
 4048               	.LBE324:
 4049               	.LBE325:
 4050               	.LBE326:
 4051               	.LBE330:
 4052               	.LBB331:
 4053               	.LBB319:
 4054               	.LBB318:
 4055               	.LBB317:
 4056 031a C701      		movw r24,r14
 4057 031c B601      		movw r22,r12
 4058 031e 0E94 0000 		call __subsf3
 4059               	.LVL361:
 4060 0322 2BED      		ldi r18,lo8(-37)
 4061 0324 3FE0      		ldi r19,lo8(15)
 4062 0326 49EC      		ldi r20,lo8(-55)
 4063 0328 50E4      		ldi r21,lo8(64)
 4064 032a 0E94 0000 		call fmod
 4065               	.LVL362:
 4066 032e 2BED      		ldi r18,lo8(-37)
 4067 0330 3FE0      		ldi r19,lo8(15)
 4068 0332 49E4      		ldi r20,lo8(73)
 4069 0334 50E4      		ldi r21,lo8(64)
 4070 0336 0E94 0000 		call __addsf3
 4071               	.LVL363:
 4072 033a 00C0      		rjmp .L145
 4073               	.LVL364:
 4074               	.L152:
 4075               	.LBE317:
 4076               	.LBE318:
 4077               	.LBE319:
 4078               	.LBE331:
 4079               	.LBB332:
 4080               	.LBB305:
 4081               	.LBB304:
 4082               	.LBB303:
 4083 033c C301      		movw r24,r6
 4084 033e B201      		movw r22,r4
 4085 0340 0E94 0000 		call __subsf3
 4086               	.LVL365:
 4087 0344 2BED      		ldi r18,lo8(-37)
 4088 0346 3FE0      		ldi r19,lo8(15)
 4089 0348 49EC      		ldi r20,lo8(-55)
 4090 034a 50E4      		ldi r21,lo8(64)
 4091 034c 0E94 0000 		call fmod
 4092               	.LVL366:
 4093 0350 2BED      		ldi r18,lo8(-37)
 4094 0352 3FE0      		ldi r19,lo8(15)
 4095 0354 49E4      		ldi r20,lo8(73)
 4096 0356 50E4      		ldi r21,lo8(64)
 4097 0358 0E94 0000 		call __addsf3
 4098               	.LVL367:
 4099 035c 2B01      		movw r4,r22
 4100 035e 3C01      		movw r6,r24
 4101               	.LVL368:
 4102 0360 00C0      		rjmp .L140
 4103               	.LBE303:
 4104               	.LBE304:
 4105               	.LBE305:
 4106               	.LBE332:
 4107               		.cfi_endproc
 4108               	.LFE72:
 4110               		.section	.text.updateForMovement,"ax",@progbits
 4111               	.global	updateForMovement
 4113               	updateForMovement:
 4114               	.LFB77:
 328:../src/localization.c **** 	__attribute__((unused)) Vector curX = {myPos.x, myPos.y, deg_to_rad(myPos.o)};
 4115               		.loc 1 328 0
 4116               		.cfi_startproc
 4117               	.LVL369:
 4118 0000 CF93      		push r28
 4119               	.LCFI118:
 4120               		.cfi_def_cfa_offset 4
 4121               		.cfi_offset 28, -3
 4122 0002 DF93      		push r29
 4123               	.LCFI119:
 4124               		.cfi_def_cfa_offset 5
 4125               		.cfi_offset 29, -4
 4126 0004 CDB7      		in r28,__SP_L__
 4127 0006 DEB7      		in r29,__SP_H__
 4128               	.LCFI120:
 4129               		.cfi_def_cfa_register 28
 4130 0008 A497      		sbiw r28,36
 4131               	.LCFI121:
 4132               		.cfi_def_cfa_offset 41
 4133 000a CDBF      		out __SP_L__,r28
 4134 000c DEBF      		out __SP_H__,r29
 4135               	/* prologue: function */
 4136               	/* frame size = 36 */
 4137               	/* stack size = 38 */
 4138               	.L__stack_usage = 38
 4139               	.LVL370:
 331:../src/localization.c **** 	__attribute__((unused)) Vector newX;
 4140               		.loc 1 331 0
 4141 000e 60E0      		ldi r22,lo8(myPosCovar)
 4142 0010 70E0      		ldi r23,hi8(myPosCovar)
 4143               	.LVL371:
 4144 0012 CE01      		movw r24,r28
 4145               	.LVL372:
 4146 0014 0196      		adiw r24,1
 4147 0016 0E94 0000 		call decompressP
 4148               	.LVL373:
 4149               	/* epilogue start */
 342:../src/localization.c **** 
 4150               		.loc 1 342 0
 4151 001a A496      		adiw r28,36
 4152 001c CDBF      		out __SP_L__,r28
 4153 001e DEBF      		out __SP_H__,r29
 4154 0020 DF91      		pop r29
 4155 0022 CF91      		pop r28
 4156 0024 0895      		ret
 4157               		.cfi_endproc
 4158               	.LFE77:
 4160               		.section	.text.useRNBmeas,"ax",@progbits
 4161               	.global	useRNBmeas
 4163               	useRNBmeas:
 4164               	.LFB78:
 349:../src/localization.c **** 	if(!POS_DEFINED(&myPos)){
 4165               		.loc 1 349 0
 4166               		.cfi_startproc
 4167               	.LVL374:
 4168 0000 2F92      		push r2
 4169               	.LCFI122:
 4170               		.cfi_def_cfa_offset 4
 4171               		.cfi_offset 2, -3
 4172 0002 3F92      		push r3
 4173               	.LCFI123:
 4174               		.cfi_def_cfa_offset 5
 4175               		.cfi_offset 3, -4
 4176 0004 4F92      		push r4
 4177               	.LCFI124:
 4178               		.cfi_def_cfa_offset 6
 4179               		.cfi_offset 4, -5
 4180 0006 5F92      		push r5
 4181               	.LCFI125:
 4182               		.cfi_def_cfa_offset 7
 4183               		.cfi_offset 5, -6
 4184 0008 6F92      		push r6
 4185               	.LCFI126:
 4186               		.cfi_def_cfa_offset 8
 4187               		.cfi_offset 6, -7
 4188 000a 7F92      		push r7
 4189               	.LCFI127:
 4190               		.cfi_def_cfa_offset 9
 4191               		.cfi_offset 7, -8
 4192 000c 8F92      		push r8
 4193               	.LCFI128:
 4194               		.cfi_def_cfa_offset 10
 4195               		.cfi_offset 8, -9
 4196 000e 9F92      		push r9
 4197               	.LCFI129:
 4198               		.cfi_def_cfa_offset 11
 4199               		.cfi_offset 9, -10
 4200 0010 AF92      		push r10
 4201               	.LCFI130:
 4202               		.cfi_def_cfa_offset 12
 4203               		.cfi_offset 10, -11
 4204 0012 BF92      		push r11
 4205               	.LCFI131:
 4206               		.cfi_def_cfa_offset 13
 4207               		.cfi_offset 11, -12
 4208 0014 CF92      		push r12
 4209               	.LCFI132:
 4210               		.cfi_def_cfa_offset 14
 4211               		.cfi_offset 12, -13
 4212 0016 DF92      		push r13
 4213               	.LCFI133:
 4214               		.cfi_def_cfa_offset 15
 4215               		.cfi_offset 13, -14
 4216 0018 EF92      		push r14
 4217               	.LCFI134:
 4218               		.cfi_def_cfa_offset 16
 4219               		.cfi_offset 14, -15
 4220 001a FF92      		push r15
 4221               	.LCFI135:
 4222               		.cfi_def_cfa_offset 17
 4223               		.cfi_offset 15, -16
 4224 001c 0F93      		push r16
 4225               	.LCFI136:
 4226               		.cfi_def_cfa_offset 18
 4227               		.cfi_offset 16, -17
 4228 001e 1F93      		push r17
 4229               	.LCFI137:
 4230               		.cfi_def_cfa_offset 19
 4231               		.cfi_offset 17, -18
 4232 0020 CF93      		push r28
 4233               	.LCFI138:
 4234               		.cfi_def_cfa_offset 20
 4235               		.cfi_offset 28, -19
 4236 0022 DF93      		push r29
 4237               	.LCFI139:
 4238               		.cfi_def_cfa_offset 21
 4239               		.cfi_offset 29, -20
 4240 0024 CDB7      		in r28,__SP_L__
 4241 0026 DEB7      		in r29,__SP_H__
 4242               	.LCFI140:
 4243               		.cfi_def_cfa_register 28
 4244 0028 CC53      		subi r28,60
 4245 002a D140      		sbci r29,1
 4246               	.LCFI141:
 4247               		.cfi_def_cfa_offset 337
 4248 002c CDBF      		out __SP_L__,r28
 4249 002e DEBF      		out __SP_H__,r29
 4250               	/* prologue: function */
 4251               	/* frame size = 316 */
 4252               	/* stack size = 334 */
 4253               	.L__stack_usage = 334
 4254 0030 3C01      		movw r6,r24
 4255 0032 6B01      		movw r12,r22
 4256 0034 7A01      		movw r14,r20
 4257 0036 8901      		movw r16,r18
 350:../src/localization.c **** 		POS_CALC_DEBUG_PRINT("Can't adjust others' positions until I know where I am.\r\n");
 4258               		.loc 1 350 0
 4259 0038 6091 0000 		lds r22,myPos
 4260 003c 7091 0000 		lds r23,myPos+1
 4261               	.LVL375:
 4262 0040 6115      		cp r22,__zero_reg__
 4263 0042 20E8      		ldi r18,-128
 4264 0044 7207      		cpc r23,r18
 4265               	.LVL376:
 4266 0046 01F4      		brne .+2
 4267 0048 00C0      		rjmp .L157
 350:../src/localization.c **** 		POS_CALC_DEBUG_PRINT("Can't adjust others' positions until I know where I am.\r\n");
 4268               		.loc 1 350 0 is_stmt 0 discriminator 1
 4269 004a A090 0000 		lds r10,myPos+2
 4270 004e B090 0000 		lds r11,myPos+2+1
 4271 0052 A114      		cp r10,__zero_reg__
 4272 0054 30E8      		ldi r19,-128
 4273 0056 B306      		cpc r11,r19
 4274 0058 01F4      		brne .+2
 4275 005a 00C0      		rjmp .L157
 350:../src/localization.c **** 		POS_CALC_DEBUG_PRINT("Can't adjust others' positions until I know where I am.\r\n");
 4276               		.loc 1 350 0 discriminator 2
 4277 005c 8090 0000 		lds r8,myPos+4
 4278 0060 9090 0000 		lds r9,myPos+4+1
 4279 0064 8114      		cp r8,__zero_reg__
 4280 0066 80E8      		ldi r24,-128
 4281 0068 9806      		cpc r9,r24
 4282               	.LVL377:
 4283 006a 01F4      		brne .+2
 4284 006c 00C0      		rjmp .L157
 354:../src/localization.c **** 	Vector meas = {r, deg_to_rad(b+90), deg_to_rad(h+90)};
 4285               		.loc 1 354 0 is_stmt 1
 4286 006e 072E      		mov __tmp_reg__,r23
 4287 0070 000C      		lsl r0
 4288 0072 880B      		sbc r24,r24
 4289 0074 990B      		sbc r25,r25
 4290 0076 0E94 0000 		call __floatsisf
 4291               	.LVL378:
 4292 007a C35D      		subi r28,lo8(-301)
 4293 007c DE4F      		sbci r29,hi8(-301)
 4294 007e 6883      		st Y,r22
 4295 0080 7983      		std Y+1,r23
 4296 0082 8A83      		std Y+2,r24
 4297 0084 9B83      		std Y+3,r25
 4298 0086 CD52      		subi r28,lo8(301)
 4299 0088 D140      		sbci r29,hi8(301)
 4300 008a B501      		movw r22,r10
 4301 008c BB0C      		lsl r11
 4302 008e 880B      		sbc r24,r24
 4303 0090 990B      		sbc r25,r25
 4304 0092 0E94 0000 		call __floatsisf
 4305               	.LVL379:
 4306 0096 CF5C      		subi r28,lo8(-305)
 4307 0098 DE4F      		sbci r29,hi8(-305)
 4308 009a 6883      		st Y,r22
 4309 009c 7983      		std Y+1,r23
 4310 009e 8A83      		std Y+2,r24
 4311 00a0 9B83      		std Y+3,r25
 4312 00a2 C153      		subi r28,lo8(305)
 4313 00a4 D140      		sbci r29,hi8(305)
 4314               	.LVL380:
 4315               	.LBB375:
 4316               	.LBB376:
 4317               		.loc 2 82 0
 4318 00a6 B401      		movw r22,r8
 4319 00a8 990C      		lsl r9
 4320 00aa 880B      		sbc r24,r24
 4321 00ac 990B      		sbc r25,r25
 4322 00ae 0E94 0000 		call __floatsisf
 4323               	.LVL381:
 4324 00b2 20E0      		ldi r18,0
 4325 00b4 30E0      		ldi r19,0
 4326 00b6 44E3      		ldi r20,lo8(52)
 4327 00b8 53E4      		ldi r21,lo8(67)
 4328 00ba 0E94 0000 		call __divsf3
 4329               	.LVL382:
 4330 00be 2BED      		ldi r18,lo8(-37)
 4331 00c0 3FE0      		ldi r19,lo8(15)
 4332 00c2 49E4      		ldi r20,lo8(73)
 4333 00c4 50E4      		ldi r21,lo8(64)
 4334 00c6 0E94 0000 		call __mulsf3
 4335               	.LVL383:
 4336 00ca 4B01      		movw r8,r22
 4337 00cc 5C01      		movw r10,r24
 4338               	.LVL384:
 4339               	.LBB377:
 4340               	.LBB378:
  74:../include/range_algs.h **** }
 4341               		.loc 2 74 0
 4342 00ce 20E0      		ldi r18,0
 4343 00d0 30E0      		ldi r19,0
 4344 00d2 A901      		movw r20,r18
 4345 00d4 0E94 0000 		call __gesf2
 4346               	.LVL385:
 4347 00d8 2BED      		ldi r18,lo8(-37)
 4348 00da 3FE0      		ldi r19,lo8(15)
 4349 00dc 49E4      		ldi r20,lo8(73)
 4350 00de 50E4      		ldi r21,lo8(64)
 4351 00e0 87FD      		sbrc r24,7
 4352 00e2 00C0      		rjmp .L205
 4353 00e4 C501      		movw r24,r10
 4354 00e6 B401      		movw r22,r8
 4355 00e8 0E94 0000 		call __addsf3
 4356               	.LVL386:
 4357 00ec 2BED      		ldi r18,lo8(-37)
 4358 00ee 3FE0      		ldi r19,lo8(15)
 4359 00f0 49EC      		ldi r20,lo8(-55)
 4360 00f2 50E4      		ldi r21,lo8(64)
 4361 00f4 0E94 0000 		call fmod
 4362               	.LVL387:
 4363 00f8 2BED      		ldi r18,lo8(-37)
 4364 00fa 3FE0      		ldi r19,lo8(15)
 4365 00fc 49E4      		ldi r20,lo8(73)
 4366 00fe 50E4      		ldi r21,lo8(64)
 4367 0100 0E94 0000 		call __subsf3
 4368               	.LVL388:
 4369               	.L162:
 4370               	.LBE378:
 4371               	.LBE377:
 4372               	.LBE376:
 4373               	.LBE375:
 354:../src/localization.c **** 	Vector meas = {r, deg_to_rad(b+90), deg_to_rad(h+90)};
 4374               		.loc 1 354 0
 4375 0104 CB5C      		subi r28,lo8(-309)
 4376 0106 DE4F      		sbci r29,hi8(-309)
 4377 0108 6883      		st Y,r22
 4378 010a 7983      		std Y+1,r23
 4379 010c 8A83      		std Y+2,r24
 4380 010e 9B83      		std Y+3,r25
 4381 0110 C553      		subi r28,lo8(309)
 4382 0112 D140      		sbci r29,hi8(309)
 355:../src/localization.c **** 	Matrix myP;
 4383               		.loc 1 355 0
 4384 0114 B601      		movw r22,r12
 4385 0116 80E0      		ldi r24,0
 4386 0118 90E0      		ldi r25,0
 4387 011a 0E94 0000 		call __floatunsisf
 4388               	.LVL389:
 4389 011e CF5D      		subi r28,lo8(-289)
 4390 0120 DE4F      		sbci r29,hi8(-289)
 4391 0122 6883      		st Y,r22
 4392 0124 7983      		std Y+1,r23
 4393 0126 8A83      		std Y+2,r24
 4394 0128 9B83      		std Y+3,r25
 4395 012a C152      		subi r28,lo8(289)
 4396 012c D140      		sbci r29,hi8(289)
 4397               	.LVL390:
 4398               	.LBB382:
 4399               	.LBB383:
 4400               		.loc 2 82 0
 4401 012e F701      		movw r30,r14
 4402 0130 E65A      		subi r30,-90
 4403 0132 FF4F      		sbci r31,-1
 4404 0134 C75C      		subi r28,lo8(-313)
 4405 0136 DE4F      		sbci r29,hi8(-313)
 4406 0138 E883      		st Y,r30
 4407 013a F983      		std Y+1,r31
 4408 013c C953      		subi r28,lo8(313)
 4409 013e D140      		sbci r29,hi8(313)
 4410 0140 BF01      		movw r22,r30
 4411 0142 FF0F      		lsl r31
 4412 0144 880B      		sbc r24,r24
 4413 0146 990B      		sbc r25,r25
 4414 0148 0E94 0000 		call __floatsisf
 4415               	.LVL391:
 4416 014c 20E0      		ldi r18,0
 4417 014e 30E0      		ldi r19,0
 4418 0150 44E3      		ldi r20,lo8(52)
 4419 0152 53E4      		ldi r21,lo8(67)
 4420 0154 0E94 0000 		call __divsf3
 4421               	.LVL392:
 4422 0158 2BED      		ldi r18,lo8(-37)
 4423 015a 3FE0      		ldi r19,lo8(15)
 4424 015c 49E4      		ldi r20,lo8(73)
 4425 015e 50E4      		ldi r21,lo8(64)
 4426 0160 0E94 0000 		call __mulsf3
 4427               	.LVL393:
 4428 0164 4B01      		movw r8,r22
 4429 0166 5C01      		movw r10,r24
 4430               	.LVL394:
 4431               	.LBB384:
 4432               	.LBB385:
  74:../include/range_algs.h **** }
 4433               		.loc 2 74 0
 4434 0168 20E0      		ldi r18,0
 4435 016a 30E0      		ldi r19,0
 4436 016c A901      		movw r20,r18
 4437 016e 0E94 0000 		call __gesf2
 4438               	.LVL395:
 4439 0172 2BED      		ldi r18,lo8(-37)
 4440 0174 3FE0      		ldi r19,lo8(15)
 4441 0176 49E4      		ldi r20,lo8(73)
 4442 0178 50E4      		ldi r21,lo8(64)
 4443 017a 87FD      		sbrc r24,7
 4444 017c 00C0      		rjmp .L206
 4445 017e C501      		movw r24,r10
 4446 0180 B401      		movw r22,r8
 4447 0182 0E94 0000 		call __addsf3
 4448               	.LVL396:
 4449 0186 2BED      		ldi r18,lo8(-37)
 4450 0188 3FE0      		ldi r19,lo8(15)
 4451 018a 49EC      		ldi r20,lo8(-55)
 4452 018c 50E4      		ldi r21,lo8(64)
 4453 018e 0E94 0000 		call fmod
 4454               	.LVL397:
 4455 0192 2BED      		ldi r18,lo8(-37)
 4456 0194 3FE0      		ldi r19,lo8(15)
 4457 0196 49E4      		ldi r20,lo8(73)
 4458 0198 50E4      		ldi r21,lo8(64)
 4459 019a 0E94 0000 		call __subsf3
 4460               	.LVL398:
 4461               	.L165:
 4462               	.LBE385:
 4463               	.LBE384:
 4464               	.LBE383:
 4465               	.LBE382:
 355:../src/localization.c **** 	Matrix myP;
 4466               		.loc 1 355 0
 4467 019e CB5D      		subi r28,lo8(-293)
 4468 01a0 DE4F      		sbci r29,hi8(-293)
 4469 01a2 6883      		st Y,r22
 4470 01a4 7983      		std Y+1,r23
 4471 01a6 8A83      		std Y+2,r24
 4472 01a8 9B83      		std Y+3,r25
 4473 01aa C552      		subi r28,lo8(293)
 4474 01ac D140      		sbci r29,hi8(293)
 4475               	.LVL399:
 4476               	.LBB389:
 4477               	.LBB390:
 4478               		.loc 2 82 0
 4479 01ae B801      		movw r22,r16
 4480 01b0 665A      		subi r22,-90
 4481 01b2 7F4F      		sbci r23,-1
 4482 01b4 072E      		mov __tmp_reg__,r23
 4483 01b6 000C      		lsl r0
 4484 01b8 880B      		sbc r24,r24
 4485 01ba 990B      		sbc r25,r25
 4486 01bc 0E94 0000 		call __floatsisf
 4487               	.LVL400:
 4488 01c0 20E0      		ldi r18,0
 4489 01c2 30E0      		ldi r19,0
 4490 01c4 44E3      		ldi r20,lo8(52)
 4491 01c6 53E4      		ldi r21,lo8(67)
 4492 01c8 0E94 0000 		call __divsf3
 4493               	.LVL401:
 4494 01cc 2BED      		ldi r18,lo8(-37)
 4495 01ce 3FE0      		ldi r19,lo8(15)
 4496 01d0 49E4      		ldi r20,lo8(73)
 4497 01d2 50E4      		ldi r21,lo8(64)
 4498 01d4 0E94 0000 		call __mulsf3
 4499               	.LVL402:
 4500 01d8 4B01      		movw r8,r22
 4501 01da 5C01      		movw r10,r24
 4502               	.LVL403:
 4503               	.LBB391:
 4504               	.LBB392:
  74:../include/range_algs.h **** }
 4505               		.loc 2 74 0
 4506 01dc 20E0      		ldi r18,0
 4507 01de 30E0      		ldi r19,0
 4508 01e0 A901      		movw r20,r18
 4509 01e2 0E94 0000 		call __gesf2
 4510               	.LVL404:
 4511 01e6 2BED      		ldi r18,lo8(-37)
 4512 01e8 3FE0      		ldi r19,lo8(15)
 4513 01ea 49E4      		ldi r20,lo8(73)
 4514 01ec 50E4      		ldi r21,lo8(64)
 4515 01ee 87FD      		sbrc r24,7
 4516 01f0 00C0      		rjmp .L207
 4517 01f2 C501      		movw r24,r10
 4518 01f4 B401      		movw r22,r8
 4519 01f6 0E94 0000 		call __addsf3
 4520               	.LVL405:
 4521 01fa 2BED      		ldi r18,lo8(-37)
 4522 01fc 3FE0      		ldi r19,lo8(15)
 4523 01fe 49EC      		ldi r20,lo8(-55)
 4524 0200 50E4      		ldi r21,lo8(64)
 4525 0202 0E94 0000 		call fmod
 4526               	.LVL406:
 4527 0206 2BED      		ldi r18,lo8(-37)
 4528 0208 3FE0      		ldi r19,lo8(15)
 4529 020a 49E4      		ldi r20,lo8(73)
 4530 020c 50E4      		ldi r21,lo8(64)
 4531 020e 0E94 0000 		call __subsf3
 4532               	.LVL407:
 4533               	.L168:
 4534               	.LBE392:
 4535               	.LBE391:
 4536               	.LBE390:
 4537               	.LBE389:
 355:../src/localization.c **** 	Matrix myP;
 4538               		.loc 1 355 0
 4539 0212 C75D      		subi r28,lo8(-297)
 4540 0214 DE4F      		sbci r29,hi8(-297)
 4541 0216 6883      		st Y,r22
 4542 0218 7983      		std Y+1,r23
 4543 021a 8A83      		std Y+2,r24
 4544 021c 9B83      		std Y+3,r25
 4545 021e C952      		subi r28,lo8(297)
 4546 0220 D140      		sbci r29,hi8(297)
 357:../src/localization.c **** 	Matrix G;
 4547               		.loc 1 357 0
 4548 0222 60E0      		ldi r22,lo8(myPosCovar)
 4549 0224 70E0      		ldi r23,hi8(myPosCovar)
 4550 0226 CE01      		movw r24,r28
 4551 0228 8752      		subi r24,39
 4552 022a 9F4F      		sbci r25,-1
 4553 022c 0E94 0000 		call decompressP
 4554               	.LVL408:
 4555 0230 CB5C      		subi r28,lo8(-309)
 4556 0232 DE4F      		sbci r29,hi8(-309)
 4557 0234 2880      		ld r2,Y
 4558 0236 3980      		ldd r3,Y+1
 4559 0238 4A80      		ldd r4,Y+2
 4560 023a 5B80      		ldd r5,Y+3
 4561 023c C553      		subi r28,lo8(309)
 4562 023e D140      		sbci r29,hi8(309)
 4563               	.LVL409:
 4564               	.LBB396:
 4565               	.LBB397:
 276:../src/localization.c **** 	float sinO = sin((*pos)[2]);
 4566               		.loc 1 276 0
 4567 0240 C201      		movw r24,r4
 4568 0242 B101      		movw r22,r2
 4569 0244 0E94 0000 		call cos
 4570               	.LVL410:
 4571 0248 4B01      		movw r8,r22
 4572 024a 5C01      		movw r10,r24
 4573               	.LVL411:
 277:../src/localization.c **** 	(*G)[0][0] = cosO;    (*G)[0][1] = -sinO;    (*G)[0][2] = 0;
 4574               		.loc 1 277 0
 4575 024c C201      		movw r24,r4
 4576 024e B101      		movw r22,r2
 4577 0250 0E94 0000 		call sin
 4578               	.LVL412:
 278:../src/localization.c **** 	(*G)[1][0] = sinO;    (*G)[1][1] =  cosO;    (*G)[1][2] = 0;
 4579               		.loc 1 278 0
 4580 0254 CB54      		subi r28,lo8(-181)
 4581 0256 DF4F      		sbci r29,hi8(-181)
 4582 0258 8882      		st Y,r8
 4583 025a 9982      		std Y+1,r9
 4584 025c AA82      		std Y+2,r10
 4585 025e BB82      		std Y+3,r11
 4586 0260 C55B      		subi r28,lo8(181)
 4587 0262 D040      		sbci r29,hi8(181)
 4588 0264 9B01      		movw r18,r22
 4589 0266 AC01      		movw r20,r24
 4590 0268 5058      		subi r21,0x80
 4591 026a C754      		subi r28,lo8(-185)
 4592 026c DF4F      		sbci r29,hi8(-185)
 4593 026e 2883      		st Y,r18
 4594 0270 3983      		std Y+1,r19
 4595 0272 4A83      		std Y+2,r20
 4596 0274 5B83      		std Y+3,r21
 4597 0276 C95B      		subi r28,lo8(185)
 4598 0278 D040      		sbci r29,hi8(185)
 4599 027a C354      		subi r28,lo8(-189)
 4600 027c DF4F      		sbci r29,hi8(-189)
 4601 027e 1882      		st Y,__zero_reg__
 4602 0280 1982      		std Y+1,__zero_reg__
 4603 0282 1A82      		std Y+2,__zero_reg__
 4604 0284 1B82      		std Y+3,__zero_reg__
 4605 0286 CD5B      		subi r28,lo8(189)
 4606 0288 D040      		sbci r29,hi8(189)
 279:../src/localization.c **** 	(*G)[2][0] = 0;       (*G)[2][1] = 0;        (*G)[2][2] = 1;
 4607               		.loc 1 279 0
 4608 028a CF53      		subi r28,lo8(-193)
 4609 028c DF4F      		sbci r29,hi8(-193)
 4610 028e 6883      		st Y,r22
 4611 0290 7983      		std Y+1,r23
 4612 0292 8A83      		std Y+2,r24
 4613 0294 9B83      		std Y+3,r25
 4614 0296 C15C      		subi r28,lo8(193)
 4615 0298 D040      		sbci r29,hi8(193)
 4616 029a CB53      		subi r28,lo8(-197)
 4617 029c DF4F      		sbci r29,hi8(-197)
 4618 029e 8882      		st Y,r8
 4619 02a0 9982      		std Y+1,r9
 4620 02a2 AA82      		std Y+2,r10
 4621 02a4 BB82      		std Y+3,r11
 4622 02a6 C55C      		subi r28,lo8(197)
 4623 02a8 D040      		sbci r29,hi8(197)
 4624 02aa C753      		subi r28,lo8(-201)
 4625 02ac DF4F      		sbci r29,hi8(-201)
 4626 02ae 1882      		st Y,__zero_reg__
 4627 02b0 1982      		std Y+1,__zero_reg__
 4628 02b2 1A82      		std Y+2,__zero_reg__
 4629 02b4 1B82      		std Y+3,__zero_reg__
 4630 02b6 C95C      		subi r28,lo8(201)
 4631 02b8 D040      		sbci r29,hi8(201)
 280:../src/localization.c **** }
 4632               		.loc 1 280 0
 4633 02ba C353      		subi r28,lo8(-205)
 4634 02bc DF4F      		sbci r29,hi8(-205)
 4635 02be 1882      		st Y,__zero_reg__
 4636 02c0 1982      		std Y+1,__zero_reg__
 4637 02c2 1A82      		std Y+2,__zero_reg__
 4638 02c4 1B82      		std Y+3,__zero_reg__
 4639 02c6 CD5C      		subi r28,lo8(205)
 4640 02c8 D040      		sbci r29,hi8(205)
 4641 02ca CF52      		subi r28,lo8(-209)
 4642 02cc DF4F      		sbci r29,hi8(-209)
 4643 02ce 1882      		st Y,__zero_reg__
 4644 02d0 1982      		std Y+1,__zero_reg__
 4645 02d2 1A82      		std Y+2,__zero_reg__
 4646 02d4 1B82      		std Y+3,__zero_reg__
 4647 02d6 C15D      		subi r28,lo8(209)
 4648 02d8 D040      		sbci r29,hi8(209)
 4649 02da 812C      		mov r8,__zero_reg__
 4650 02dc 912C      		mov r9,__zero_reg__
 4651 02de 40E8      		ldi r20,lo8(-128)
 4652 02e0 A42E      		mov r10,r20
 4653 02e2 4FE3      		ldi r20,lo8(63)
 4654 02e4 B42E      		mov r11,r20
 4655               	.LVL413:
 4656 02e6 CB52      		subi r28,lo8(-213)
 4657 02e8 DF4F      		sbci r29,hi8(-213)
 4658 02ea 8882      		st Y,r8
 4659 02ec 9982      		std Y+1,r9
 4660 02ee AA82      		std Y+2,r10
 4661 02f0 BB82      		std Y+3,r11
 4662 02f2 C55D      		subi r28,lo8(213)
 4663 02f4 D040      		sbci r29,hi8(213)
 4664               	.LVL414:
 4665               	.LBE397:
 4666               	.LBE396:
 361:../src/localization.c **** 	Vector z;
 4667               		.loc 1 361 0
 4668 02f6 BE01      		movw r22,r28
 4669 02f8 6B54      		subi r22,75
 4670 02fa 7F4F      		sbci r23,-1
 4671 02fc CE01      		movw r24,r28
 4672 02fe 8F56      		subi r24,111
 4673 0300 9F4F      		sbci r25,-1
 4674 0302 0E94 0000 		call matrixTranspose
 4675               	.LVL415:
 363:../src/localization.c **** 	Matrix R;
 4676               		.loc 1 363 0
 4677 0306 BE01      		movw r22,r28
 4678 0308 6F5D      		subi r22,-33
 4679 030a 7E4F      		sbci r23,-2
 4680 030c CE01      		movw r24,r28
 4681 030e 8B5E      		subi r24,-21
 4682 0310 9E4F      		sbci r25,-2
 4683 0312 0E94 0000 		call calcRelativePose
 4684               	.LVL416:
 365:../src/localization.c **** 
 4685               		.loc 1 365 0
 4686 0316 41E2      		ldi r20,lo8(33)
 4687 0318 51E0      		ldi r21,lo8(1)
 4688 031a 4C0F      		add r20,r28
 4689 031c 5D1F      		adc r21,r29
 4690 031e 4C5F      		subi r20,-4
 4691 0320 5F4F      		sbci r21,-1
 4692 0322 BE01      		movw r22,r28
 4693 0324 6F5D      		subi r22,-33
 4694 0326 7E4F      		sbci r23,-2
 4695 0328 CE01      		movw r24,r28
 4696 032a 8359      		subi r24,-109
 4697 032c 9F4F      		sbci r25,-1
 4698 032e 0E94 0000 		call getMeasCovar.isra.3
 4699               	.LVL417:
 369:../src/localization.c **** 	vectorAdd(&x_you, &x_me, &x_you);
 4700               		.loc 1 369 0
 4701 0332 AE01      		movw r20,r28
 4702 0334 4B5E      		subi r20,-21
 4703 0336 5E4F      		sbci r21,-2
 4704 0338 BE01      		movw r22,r28
 4705 033a 6B54      		subi r22,75
 4706 033c 7F4F      		sbci r23,-1
 4707 033e CE01      		movw r24,r28
 4708 0340 875F      		subi r24,-9
 4709 0342 9E4F      		sbci r25,-2
 4710 0344 0E94 0000 		call matrixTimesVector
 4711               	.LVL418:
 370:../src/localization.c **** 	Matrix H;
 4712               		.loc 1 370 0
 4713 0348 AE01      		movw r20,r28
 4714 034a 475F      		subi r20,-9
 4715 034c 5E4F      		sbci r21,-2
 4716 034e BE01      		movw r22,r28
 4717 0350 635D      		subi r22,-45
 4718 0352 7E4F      		sbci r23,-2
 4719 0354 CA01      		movw r24,r20
 4720 0356 0E94 0000 		call vectorAdd
 4721               	.LVL419:
 4722               	.LBB398:
 4723               	.LBB399:
 284:../src/localization.c **** 	(*H)[1][0] = 0;    (*H)[1][1] = 1;    (*H)[1][2] = (*x_you)[0] - (*x_me)[0];
 4724               		.loc 1 284 0
 4725 035a 2D96      		adiw r28,73-60
 4726 035c 8CAE      		std Y+60,r8
 4727 035e 9DAE      		std Y+61,r9
 4728 0360 AEAE      		std Y+62,r10
 4729 0362 BFAE      		std Y+63,r11
 4730 0364 2D97      		sbiw r28,73-60
 4731 0366 6196      		adiw r28,77-60
 4732 0368 1CAE      		std Y+60,__zero_reg__
 4733 036a 1DAE      		std Y+61,__zero_reg__
 4734 036c 1EAE      		std Y+62,__zero_reg__
 4735 036e 1FAE      		std Y+63,__zero_reg__
 4736 0370 6197      		sbiw r28,77-60
 4737 0372 C35F      		subi r28,lo8(-269)
 4738 0374 DE4F      		sbci r29,hi8(-269)
 4739 0376 2881      		ld r18,Y
 4740 0378 3981      		ldd r19,Y+1
 4741 037a 4A81      		ldd r20,Y+2
 4742 037c 5B81      		ldd r21,Y+3
 4743 037e CD50      		subi r28,lo8(269)
 4744 0380 D140      		sbci r29,hi8(269)
 4745 0382 CF5C      		subi r28,lo8(-305)
 4746 0384 DE4F      		sbci r29,hi8(-305)
 4747 0386 6881      		ld r22,Y
 4748 0388 7981      		ldd r23,Y+1
 4749 038a 8A81      		ldd r24,Y+2
 4750 038c 9B81      		ldd r25,Y+3
 4751 038e C153      		subi r28,lo8(305)
 4752 0390 D140      		sbci r29,hi8(305)
 4753 0392 0E94 0000 		call __subsf3
 4754               	.LVL420:
 4755 0396 6596      		adiw r28,81-60
 4756 0398 6CAF      		std Y+60,r22
 4757 039a 7DAF      		std Y+61,r23
 4758 039c 8EAF      		std Y+62,r24
 4759 039e 9FAF      		std Y+63,r25
 4760 03a0 6597      		sbiw r28,81-60
 285:../src/localization.c **** 	(*H)[2][0] = 0;    (*H)[2][1] = 0;    (*H)[2][2] = 1;
 4761               		.loc 1 285 0
 4762 03a2 6996      		adiw r28,85-60
 4763 03a4 1CAE      		std Y+60,__zero_reg__
 4764 03a6 1DAE      		std Y+61,__zero_reg__
 4765 03a8 1EAE      		std Y+62,__zero_reg__
 4766 03aa 1FAE      		std Y+63,__zero_reg__
 4767 03ac 6997      		sbiw r28,85-60
 4768 03ae 6D96      		adiw r28,89-60
 4769 03b0 8CAE      		std Y+60,r8
 4770 03b2 9DAE      		std Y+61,r9
 4771 03b4 AEAE      		std Y+62,r10
 4772 03b6 BFAE      		std Y+63,r11
 4773 03b8 6D97      		sbiw r28,89-60
 4774 03ba C35D      		subi r28,lo8(-301)
 4775 03bc DE4F      		sbci r29,hi8(-301)
 4776 03be 2881      		ld r18,Y
 4777 03c0 3981      		ldd r19,Y+1
 4778 03c2 4A81      		ldd r20,Y+2
 4779 03c4 5B81      		ldd r21,Y+3
 4780 03c6 CD52      		subi r28,lo8(301)
 4781 03c8 D140      		sbci r29,hi8(301)
 4782 03ca C75F      		subi r28,lo8(-265)
 4783 03cc DE4F      		sbci r29,hi8(-265)
 4784 03ce 6881      		ld r22,Y
 4785 03d0 7981      		ldd r23,Y+1
 4786 03d2 8A81      		ldd r24,Y+2
 4787 03d4 9B81      		ldd r25,Y+3
 4788 03d6 C950      		subi r28,lo8(265)
 4789 03d8 D140      		sbci r29,hi8(265)
 4790 03da 0E94 0000 		call __subsf3
 4791               	.LVL421:
 4792 03de A196      		adiw r28,93-60
 4793 03e0 6CAF      		std Y+60,r22
 4794 03e2 7DAF      		std Y+61,r23
 4795 03e4 8EAF      		std Y+62,r24
 4796 03e6 9FAF      		std Y+63,r25
 4797 03e8 A197      		sbiw r28,93-60
 286:../src/localization.c **** }
 4798               		.loc 1 286 0
 4799 03ea A596      		adiw r28,97-60
 4800 03ec 1CAE      		std Y+60,__zero_reg__
 4801 03ee 1DAE      		std Y+61,__zero_reg__
 4802 03f0 1EAE      		std Y+62,__zero_reg__
 4803 03f2 1FAE      		std Y+63,__zero_reg__
 4804 03f4 A597      		sbiw r28,97-60
 4805 03f6 A996      		adiw r28,101-60
 4806 03f8 1CAE      		std Y+60,__zero_reg__
 4807 03fa 1DAE      		std Y+61,__zero_reg__
 4808 03fc 1EAE      		std Y+62,__zero_reg__
 4809 03fe 1FAE      		std Y+63,__zero_reg__
 4810 0400 A997      		sbiw r28,101-60
 4811 0402 AD96      		adiw r28,105-60
 4812 0404 8CAE      		std Y+60,r8
 4813 0406 9DAE      		std Y+61,r9
 4814 0408 AEAE      		std Y+62,r10
 4815 040a BFAE      		std Y+63,r11
 4816 040c AD97      		sbiw r28,105-60
 4817               	.LVL422:
 4818               	.LBE399:
 4819               	.LBE398:
 377:../src/localization.c **** 	matrixMultiply(&yourP, &tmp, &Gtp); //now yourP is G.R.tp(G)
 4820               		.loc 1 377 0
 4821 040e AE01      		movw r20,r28
 4822 0410 4359      		subi r20,-109
 4823 0412 5F4F      		sbci r21,-1
 4824 0414 BE01      		movw r22,r28
 4825 0416 6B54      		subi r22,75
 4826 0418 7F4F      		sbci r23,-1
 4827 041a CE01      		movw r24,r28
 4828 041c 8596      		adiw r24,37
 4829 041e 0E94 0000 		call matrixMultiply
 4830               	.LVL423:
 378:../src/localization.c **** 	matrixMultiply(&tmp, &H, &myP);
 4831               		.loc 1 378 0
 4832 0422 AE01      		movw r20,r28
 4833 0424 4F56      		subi r20,111
 4834 0426 5F4F      		sbci r21,-1
 4835 0428 BE01      		movw r22,r28
 4836 042a 6B5D      		subi r22,-37
 4837 042c 7F4F      		sbci r23,-1
 4838 042e CE01      		movw r24,r28
 4839 0430 0196      		adiw r24,1
 4840 0432 0E94 0000 		call matrixMultiply
 4841               	.LVL424:
 379:../src/localization.c **** 	matrixInplaceTranspose(&H);
 4842               		.loc 1 379 0
 4843 0436 AE01      		movw r20,r28
 4844 0438 4752      		subi r20,39
 4845 043a 5F4F      		sbci r21,-1
 4846 043c BE01      		movw r22,r28
 4847 043e 675B      		subi r22,-73
 4848 0440 7F4F      		sbci r23,-1
 4849 0442 CE01      		movw r24,r28
 4850 0444 8596      		adiw r24,37
 4851 0446 0E94 0000 		call matrixMultiply
 4852               	.LVL425:
 380:../src/localization.c **** 	matrixInplaceMultiply(&tmp, &tmp, &H); //now tmp is H.myP.tp(H)
 4853               		.loc 1 380 0
 4854 044a CE01      		movw r24,r28
 4855 044c 875B      		subi r24,-73
 4856 044e 9F4F      		sbci r25,-1
 4857 0450 0E94 0000 		call matrixInplaceTranspose
 4858               	.LVL426:
 381:../src/localization.c **** 	matrixAdd(&yourP, &tmp, &yourP);
 4859               		.loc 1 381 0
 4860 0454 AE01      		movw r20,r28
 4861 0456 475B      		subi r20,-73
 4862 0458 5F4F      		sbci r21,-1
 4863 045a BE01      		movw r22,r28
 4864 045c 6B5D      		subi r22,-37
 4865 045e 7F4F      		sbci r23,-1
 4866 0460 CB01      		movw r24,r22
 4867 0462 0E94 0000 		call matrixInplaceMultiply
 4868               	.LVL427:
 382:../src/localization.c **** 	
 4869               		.loc 1 382 0
 4870 0466 AE01      		movw r20,r28
 4871 0468 4F5F      		subi r20,-1
 4872 046a 5F4F      		sbci r21,-1
 4873 046c BE01      		movw r22,r28
 4874 046e 6B5D      		subi r22,-37
 4875 0470 7F4F      		sbci r23,-1
 4876 0472 CA01      		movw r24,r20
 4877 0474 0E94 0000 		call matrixAdd
 4878               	.LVL428:
 384:../src/localization.c **** 		POS_CALC_DEBUG_PRINT("\t%04X @ {%6.1f, %6.1f, % 5.0f} from {% 4d, % 4d, % 4d}\r\n", id, x_you[0],
 4879               		.loc 1 384 0
 4880 0478 CE01      		movw r24,r28
 4881 047a 0196      		adiw r24,1
 4882 047c 0E94 0000 		call positiveDefiniteQ
 4883               	.LVL429:
 4884 0480 8823      		tst r24
 4885 0482 01F4      		brne .+2
 4886 0484 00C0      		rjmp .L156
 4887               	.LBB400:
 385:../src/localization.c **** 		#if defined(POS_CALC_DEBUG_MODE) && defined(COVAR_DEBUG_MODE)
 4888               		.loc 1 385 0
 4889 0486 2BED      		ldi r18,lo8(-37)
 4890 0488 3FE0      		ldi r19,lo8(15)
 4891 048a 49EC      		ldi r20,lo8(-55)
 4892 048c 5FE3      		ldi r21,lo8(63)
 4893 048e CF5E      		subi r28,lo8(-273)
 4894 0490 DE4F      		sbci r29,hi8(-273)
 4895 0492 6881      		ld r22,Y
 4896 0494 7981      		ldd r23,Y+1
 4897 0496 8A81      		ldd r24,Y+2
 4898 0498 9B81      		ldd r25,Y+3
 4899 049a C151      		subi r28,lo8(273)
 4900 049c D140      		sbci r29,hi8(273)
 4901 049e 0E94 0000 		call __subsf3
 4902               	.LVL430:
 4903 04a2 4B01      		movw r8,r22
 4904 04a4 5C01      		movw r10,r24
 4905               	.LVL431:
 4906               	.LBB401:
 4907               	.LBB402:
 4908               	.LBB403:
 4909               	.LBB404:
  74:../include/range_algs.h **** }
 4910               		.loc 2 74 0
 4911 04a6 20E0      		ldi r18,0
 4912 04a8 30E0      		ldi r19,0
 4913 04aa A901      		movw r20,r18
 4914 04ac 0E94 0000 		call __gesf2
 4915               	.LVL432:
 4916 04b0 2BED      		ldi r18,lo8(-37)
 4917 04b2 3FE0      		ldi r19,lo8(15)
 4918 04b4 49E4      		ldi r20,lo8(73)
 4919 04b6 50E4      		ldi r21,lo8(64)
 4920 04b8 87FD      		sbrc r24,7
 4921 04ba 00C0      		rjmp .L208
 4922 04bc C501      		movw r24,r10
 4923 04be B401      		movw r22,r8
 4924 04c0 0E94 0000 		call __addsf3
 4925               	.LVL433:
 4926 04c4 2BED      		ldi r18,lo8(-37)
 4927 04c6 3FE0      		ldi r19,lo8(15)
 4928 04c8 49EC      		ldi r20,lo8(-55)
 4929 04ca 50E4      		ldi r21,lo8(64)
 4930 04cc 0E94 0000 		call fmod
 4931               	.LVL434:
 4932 04d0 2BED      		ldi r18,lo8(-37)
 4933 04d2 3FE0      		ldi r19,lo8(15)
 4934 04d4 49E4      		ldi r20,lo8(73)
 4935 04d6 50E4      		ldi r21,lo8(64)
 4936 04d8 0E94 0000 		call __subsf3
 4937               	.LVL435:
 4938               	.L172:
 4939               	.LBE404:
 4940               	.LBE403:
 4941               	.LBE402:
 4942               	.LBE401:
 385:../src/localization.c **** 		#if defined(POS_CALC_DEBUG_MODE) && defined(COVAR_DEBUG_MODE)
 4943               		.loc 1 385 0
 4944 04dc 1F93      		push r17
 4945 04de 0F93      		push r16
 4946 04e0 FF92      		push r15
 4947 04e2 EF92      		push r14
 4948 04e4 DF92      		push r13
 4949 04e6 CF92      		push r12
 4950 04e8 2BED      		ldi r18,lo8(-37)
 4951 04ea 3FE0      		ldi r19,lo8(15)
 4952 04ec 49E4      		ldi r20,lo8(73)
 4953 04ee 50E4      		ldi r21,lo8(64)
 4954 04f0 0E94 0000 		call __divsf3
 4955               	.LVL436:
 4956 04f4 20E0      		ldi r18,0
 4957 04f6 30E0      		ldi r19,0
 4958 04f8 44E3      		ldi r20,lo8(52)
 4959 04fa 53E4      		ldi r21,lo8(67)
 4960 04fc 0E94 0000 		call __mulsf3
 4961               	.LVL437:
 4962 0500 20E0      		ldi r18,0
 4963 0502 30E0      		ldi r19,0
 4964 0504 40E0      		ldi r20,0
 4965 0506 5FE3      		ldi r21,lo8(63)
 4966 0508 0E94 0000 		call __addsf3
 4967               	.LVL438:
 4968 050c 9F93      		push r25
 4969 050e 8F93      		push r24
 4970 0510 7F93      		push r23
 4971 0512 6F93      		push r22
 4972 0514 C05F      		subi r28,lo8(-272)
 4973 0516 DE4F      		sbci r29,hi8(-272)
 4974 0518 8881      		ld r24,Y
 4975 051a C051      		subi r28,lo8(272)
 4976 051c D140      		sbci r29,hi8(272)
 4977 051e 8F93      		push r24
 4978 0520 C15F      		subi r28,lo8(-271)
 4979 0522 DE4F      		sbci r29,hi8(-271)
 4980 0524 8881      		ld r24,Y
 4981 0526 CF50      		subi r28,lo8(271)
 4982 0528 D140      		sbci r29,hi8(271)
 4983 052a 8F93      		push r24
 4984 052c C25F      		subi r28,lo8(-270)
 4985 052e DE4F      		sbci r29,hi8(-270)
 4986 0530 8881      		ld r24,Y
 4987 0532 CE50      		subi r28,lo8(270)
 4988 0534 D140      		sbci r29,hi8(270)
 4989 0536 8F93      		push r24
 4990 0538 C35F      		subi r28,lo8(-269)
 4991 053a DE4F      		sbci r29,hi8(-269)
 4992 053c 8881      		ld r24,Y
 4993 053e CD50      		subi r28,lo8(269)
 4994 0540 D140      		sbci r29,hi8(269)
 4995 0542 8F93      		push r24
 4996 0544 C45F      		subi r28,lo8(-268)
 4997 0546 DE4F      		sbci r29,hi8(-268)
 4998 0548 8881      		ld r24,Y
 4999 054a CC50      		subi r28,lo8(268)
 5000 054c D140      		sbci r29,hi8(268)
 5001 054e 8F93      		push r24
 5002 0550 C55F      		subi r28,lo8(-267)
 5003 0552 DE4F      		sbci r29,hi8(-267)
 5004 0554 8881      		ld r24,Y
 5005 0556 CB50      		subi r28,lo8(267)
 5006 0558 D140      		sbci r29,hi8(267)
 5007 055a 8F93      		push r24
 5008 055c C65F      		subi r28,lo8(-266)
 5009 055e DE4F      		sbci r29,hi8(-266)
 5010 0560 8881      		ld r24,Y
 5011 0562 CA50      		subi r28,lo8(266)
 5012 0564 D140      		sbci r29,hi8(266)
 5013 0566 8F93      		push r24
 5014 0568 C75F      		subi r28,lo8(-265)
 5015 056a DE4F      		sbci r29,hi8(-265)
 5016 056c 8881      		ld r24,Y
 5017 056e C950      		subi r28,lo8(265)
 5018 0570 D140      		sbci r29,hi8(265)
 5019 0572 8F93      		push r24
 5020 0574 7F92      		push r7
 5021 0576 6F92      		push r6
 5022 0578 80E0      		ldi r24,lo8(__c.5607)
 5023 057a 90E0      		ldi r25,hi8(__c.5607)
