   1               		.file	"power.c"
   2               	__SP_H__ = 0x3e
   3               	__SP_L__ = 0x3d
   4               	__SREG__ = 0x3f
   5               	__RAMPZ__ = 0x3b
   6               	__CCP__ = 0x34
   7               	__tmp_reg__ = 0
   8               	__zero_reg__ = 1
   9               		.text
  10               	.Ltext0:
  11               		.cfi_sections	.debug_frame
  12               		.section	.text.power_init,"ax",@progbits
  13               	.global	power_init
  15               	power_init:
  16               	.LFB28:
  17               		.file 1 "../src/power.c"
   1:../src/power.c **** #include "power.h"
   2:../src/power.c **** 
   3:../src/power.c **** void power_init()
   4:../src/power.c **** {
  18               		.loc 1 4 0
  19               		.cfi_startproc
  20               	/* prologue: function */
  21               	/* frame size = 0 */
  22               	/* stack size = 0 */
  23               	.L__stack_usage = 0
  24               	.LBB37:
  25               	.LBB38:
   5:../src/power.c **** 	cap_monitor_init();
   6:../src/power.c **** 	leg_monitor_init();
   7:../src/power.c **** }
   8:../src/power.c **** 
   9:../src/power.c **** void cap_monitor_init()
  10:../src/power.c **** {
  11:../src/power.c **** 	PORTB.DIRCLR = PIN0_bm | PIN1_bm;
  26               		.loc 1 11 0
  27 0000 83E0      		ldi r24,lo8(3)
  28 0002 8093 2206 		sts 1570,r24
  12:../src/power.c **** 	
  13:../src/power.c **** 	ACB.AC0CTRL = AC_ENABLE_bm;
  29               		.loc 1 13 0
  30 0006 E0E9      		ldi r30,lo8(-112)
  31 0008 F3E0      		ldi r31,lo8(3)
  32 000a 81E0      		ldi r24,lo8(1)
  33 000c 8083      		st Z,r24
  14:../src/power.c **** 	ACB.AC1CTRL = AC_ENABLE_bm;
  34               		.loc 1 14 0
  35 000e 8183      		std Z+1,r24
  15:../src/power.c **** 	
  16:../src/power.c **** 	ACB.AC0MUXCTRL = AC_MUXPOS_PIN1_gc | AC_MUXNEG_PIN0_gc; //Changed the muxneg from bandgap
  36               		.loc 1 16 0
  37 0010 88E0      		ldi r24,lo8(8)
  38 0012 8283      		std Z+2,r24
  17:../src/power.c **** 	ACB.AC1MUXCTRL = AC_MUXPOS_PIN1_gc | AC_MUXNEG_PIN0_gc;
  39               		.loc 1 17 0
  40 0014 8383      		std Z+3,r24
  18:../src/power.c **** 	
  19:../src/power.c **** 	ACB.WINCTRL = AC_WEN_bm;
  41               		.loc 1 19 0
  42 0016 90E1      		ldi r25,lo8(16)
  43 0018 9683      		std Z+6,r25
  44               	.LBE38:
  45               	.LBE37:
  46               	.LBB39:
  47               	.LBB40:
  20:../src/power.c **** }
  21:../src/power.c **** 
  22:../src/power.c **** void leg_monitor_init()
  23:../src/power.c **** {
  24:../src/power.c **** 	PORTA.DIRCLR = PIN0_bm | PIN1_bm | PIN2_bm | PIN3_bm | PIN4_bm;
  48               		.loc 1 24 0
  49 001a E0E0      		ldi r30,0
  50 001c F6E0      		ldi r31,lo8(6)
  51 001e 8FE1      		ldi r24,lo8(31)
  52 0020 8283      		std Z+2,r24
  25:../src/power.c **** 	
  26:../src/power.c **** 	PORTA.PIN0CTRL = PORT_ISC_INPUT_DISABLE_gc;
  53               		.loc 1 26 0
  54 0022 87E0      		ldi r24,lo8(7)
  55 0024 808B      		std Z+16,r24
  27:../src/power.c **** 	PORTA.PIN1CTRL = PORT_ISC_INPUT_DISABLE_gc;
  56               		.loc 1 27 0
  57 0026 818B      		std Z+17,r24
  28:../src/power.c **** 	PORTA.PIN2CTRL = PORT_ISC_INPUT_DISABLE_gc;
  58               		.loc 1 28 0
  59 0028 828B      		std Z+18,r24
  29:../src/power.c **** 	PORTA.PIN3CTRL = PORT_ISC_INPUT_DISABLE_gc;
  60               		.loc 1 29 0
  61 002a 838B      		std Z+19,r24
  30:../src/power.c **** 	PORTA.PIN4CTRL = PORT_ISC_INPUT_DISABLE_gc;
  62               		.loc 1 30 0
  63 002c 848B      		std Z+20,r24
  31:../src/power.c **** 	
  32:../src/power.c **** 	ACA.WINCTRL = AC_WEN_bm;					// Enable window mode
  64               		.loc 1 32 0
  65 002e E0E8      		ldi r30,lo8(-128)
  66 0030 F3E0      		ldi r31,lo8(3)
  67 0032 9683      		std Z+6,r25
  33:../src/power.c **** 	
  34:../src/power.c **** 	ACA.AC0MUXCTRL = AC_MUXNEG_PIN0_gc | AC_MUXPOS_PIN2_gc;	// PA0 is VREF_HI
  68               		.loc 1 34 0
  69 0034 9283      		std Z+2,r25
  35:../src/power.c **** 	ACA.AC1MUXCTRL = AC_MUXNEG_PIN1_gc | AC_MUXPOS_PIN2_gc;	// PA1 is VREF_LO
  70               		.loc 1 35 0
  71 0036 81E1      		ldi r24,lo8(17)
  72 0038 8383      		std Z+3,r24
  36:../src/power.c **** 	
  37:../src/power.c **** 	ACA.AC0CTRL = AC_HSMODE_bm | AC_ENABLE_bm;
  73               		.loc 1 37 0
  74 003a 89E0      		ldi r24,lo8(9)
  75 003c 8083      		st Z,r24
  38:../src/power.c **** 	ACA.AC1CTRL = AC_HSMODE_bm | AC_ENABLE_bm;
  76               		.loc 1 38 0
  77 003e 8183      		std Z+1,r24
  78 0040 0895      		ret
  79               	.LBE40:
  80               	.LBE39:
  81               		.cfi_endproc
  82               	.LFE28:
  84               		.section	.text.cap_monitor_init,"ax",@progbits
  85               	.global	cap_monitor_init
  87               	cap_monitor_init:
  88               	.LFB29:
  10:../src/power.c **** 	PORTB.DIRCLR = PIN0_bm | PIN1_bm;
  89               		.loc 1 10 0
  90               		.cfi_startproc
  91               	/* prologue: function */
  92               	/* frame size = 0 */
  93               	/* stack size = 0 */
  94               	.L__stack_usage = 0
  11:../src/power.c **** 	
  95               		.loc 1 11 0
  96 0000 83E0      		ldi r24,lo8(3)
  97 0002 8093 2206 		sts 1570,r24
  13:../src/power.c **** 	ACB.AC1CTRL = AC_ENABLE_bm;
  98               		.loc 1 13 0
  99 0006 E0E9      		ldi r30,lo8(-112)
 100 0008 F3E0      		ldi r31,lo8(3)
 101 000a 81E0      		ldi r24,lo8(1)
 102 000c 8083      		st Z,r24
  14:../src/power.c **** 	
 103               		.loc 1 14 0
 104 000e 8183      		std Z+1,r24
  16:../src/power.c **** 	ACB.AC1MUXCTRL = AC_MUXPOS_PIN1_gc | AC_MUXNEG_PIN0_gc;
 105               		.loc 1 16 0
 106 0010 88E0      		ldi r24,lo8(8)
 107 0012 8283      		std Z+2,r24
  17:../src/power.c **** 	
 108               		.loc 1 17 0
 109 0014 8383      		std Z+3,r24
  19:../src/power.c **** }
 110               		.loc 1 19 0
 111 0016 80E1      		ldi r24,lo8(16)
 112 0018 8683      		std Z+6,r24
 113 001a 0895      		ret
 114               		.cfi_endproc
 115               	.LFE29:
 117               		.section	.text.leg_monitor_init,"ax",@progbits
 118               	.global	leg_monitor_init
 120               	leg_monitor_init:
 121               	.LFB30:
  23:../src/power.c **** 	PORTA.DIRCLR = PIN0_bm | PIN1_bm | PIN2_bm | PIN3_bm | PIN4_bm;
 122               		.loc 1 23 0
 123               		.cfi_startproc
 124               	/* prologue: function */
 125               	/* frame size = 0 */
 126               	/* stack size = 0 */
 127               	.L__stack_usage = 0
  24:../src/power.c **** 	
 128               		.loc 1 24 0
 129 0000 E0E0      		ldi r30,0
 130 0002 F6E0      		ldi r31,lo8(6)
 131 0004 8FE1      		ldi r24,lo8(31)
 132 0006 8283      		std Z+2,r24
  26:../src/power.c **** 	PORTA.PIN1CTRL = PORT_ISC_INPUT_DISABLE_gc;
 133               		.loc 1 26 0
 134 0008 87E0      		ldi r24,lo8(7)
 135 000a 808B      		std Z+16,r24
  27:../src/power.c **** 	PORTA.PIN2CTRL = PORT_ISC_INPUT_DISABLE_gc;
 136               		.loc 1 27 0
 137 000c 818B      		std Z+17,r24
  28:../src/power.c **** 	PORTA.PIN3CTRL = PORT_ISC_INPUT_DISABLE_gc;
 138               		.loc 1 28 0
 139 000e 828B      		std Z+18,r24
  29:../src/power.c **** 	PORTA.PIN4CTRL = PORT_ISC_INPUT_DISABLE_gc;
 140               		.loc 1 29 0
 141 0010 838B      		std Z+19,r24
  30:../src/power.c **** 	
 142               		.loc 1 30 0
 143 0012 848B      		std Z+20,r24
  32:../src/power.c **** 	
 144               		.loc 1 32 0
 145 0014 E0E8      		ldi r30,lo8(-128)
 146 0016 F3E0      		ldi r31,lo8(3)
 147 0018 80E1      		ldi r24,lo8(16)
 148 001a 8683      		std Z+6,r24
  34:../src/power.c **** 	ACA.AC1MUXCTRL = AC_MUXNEG_PIN1_gc | AC_MUXPOS_PIN2_gc;	// PA1 is VREF_LO
 149               		.loc 1 34 0
 150 001c 8283      		std Z+2,r24
  35:../src/power.c **** 	
 151               		.loc 1 35 0
 152 001e 81E1      		ldi r24,lo8(17)
 153 0020 8383      		std Z+3,r24
  37:../src/power.c **** 	ACA.AC1CTRL = AC_HSMODE_bm | AC_ENABLE_bm;
 154               		.loc 1 37 0
 155 0022 89E0      		ldi r24,lo8(9)
 156 0024 8083      		st Z,r24
 157               		.loc 1 38 0
 158 0026 8183      		std Z+1,r24
 159 0028 0895      		ret
 160               		.cfi_endproc
 161               	.LFE30:
 163               		.section	.text.cap_status,"ax",@progbits
 164               	.global	cap_status
 166               	cap_status:
 167               	.LFB31:
  39:../src/power.c **** 	
  40:../src/power.c **** }
  41:../src/power.c **** 
  42:../src/power.c **** 
  43:../src/power.c **** uint8_t cap_status()
  44:../src/power.c **** {
 168               		.loc 1 44 0
 169               		.cfi_startproc
 170               	/* prologue: function */
 171               	/* frame size = 0 */
 172               	/* stack size = 0 */
 173               	.L__stack_usage = 0
  45:../src/power.c **** 	switch (ACB.STATUS & AC_WSTATE_gm)
 174               		.loc 1 45 0
 175 0000 8091 9703 		lds r24,919
 176 0004 807C      		andi r24,lo8(-64)
 177 0006 8034      		cpi r24,lo8(64)
 178 0008 01F0      		breq .L6
 179 000a 8038      		cpi r24,lo8(-128)
 180 000c 01F0      		breq .L7
 181 000e 8823      		tst r24
 182 0010 01F0      		breq .L13
  46:../src/power.c **** 	{
  47:../src/power.c **** 		case AC_WSTATE_ABOVE_gc:  return 1;
  48:../src/power.c **** 		case AC_WSTATE_INSIDE_gc: return 0;
  49:../src/power.c **** 		case AC_WSTATE_BELOW_gc:  return -1;
  50:../src/power.c **** 	}
  51:../src/power.c **** 	return -2;
 183               		.loc 1 51 0
 184 0012 8EEF      		ldi r24,lo8(-2)
 185 0014 0895      		ret
 186               	.L13:
  47:../src/power.c **** 		case AC_WSTATE_INSIDE_gc: return 0;
 187               		.loc 1 47 0
 188 0016 81E0      		ldi r24,lo8(1)
  52:../src/power.c **** }
 189               		.loc 1 52 0
 190 0018 0895      		ret
 191               	.L7:
  49:../src/power.c **** 	}
 192               		.loc 1 49 0
 193 001a 8FEF      		ldi r24,lo8(-1)
 194 001c 0895      		ret
 195               	.L6:
  48:../src/power.c **** 		case AC_WSTATE_BELOW_gc:  return -1;
 196               		.loc 1 48 0
 197 001e 80E0      		ldi r24,0
 198 0020 0895      		ret
 199               		.cfi_endproc
 200               	.LFE31:
 202               		.section	.text.leg_status,"ax",@progbits
 203               	.global	leg_status
 205               	leg_status:
 206               	.LFB32:
  53:../src/power.c **** 
  54:../src/power.c **** int8_t leg_status(uint8_t leg)
  55:../src/power.c **** {
 207               		.loc 1 55 0
 208               		.cfi_startproc
 209               	.LVL0:
 210 0000 CF93      		push r28
 211               	.LCFI0:
 212               		.cfi_def_cfa_offset 4
 213               		.cfi_offset 28, -3
 214 0002 DF93      		push r29
 215               	.LCFI1:
 216               		.cfi_def_cfa_offset 5
 217               		.cfi_offset 29, -4
 218 0004 1F92      		push __zero_reg__
 219               	.LCFI2:
 220               		.cfi_def_cfa_offset 6
 221 0006 CDB7      		in r28,__SP_L__
 222 0008 DEB7      		in r29,__SP_H__
 223               	.LCFI3:
 224               		.cfi_def_cfa_register 28
 225               	/* prologue: function */
 226               	/* frame size = 1 */
 227               	/* stack size = 3 */
 228               	.L__stack_usage = 3
 229               	.LBB41:
  56:../src/power.c **** 	volatile uint8_t status;
  57:../src/power.c **** 	ATOMIC_BLOCK(ATOMIC_RESTORESTATE)
 230               		.loc 1 57 0
 231 000a 9FB7      		in r25,__SREG__
 232               	.LVL1:
 233               	.LBB42:
 234               	.LBB43:
 235               		.file 2 "c:\\program files (x86)\\atmel\\studio\\7.0\\toolchain\\avr8\\avr8-gnu-toolchain\\avr\\in
   1:c:\program files (x86)\atmel\studio\7.0\toolchain\avr8\avr8-gnu-toolchain\avr\include\util\atomic.h **** /* Copyright (c) 2007 Dean Camera
   2:c:\program files (x86)\atmel\studio\7.0\toolchain\avr8\avr8-gnu-toolchain\avr\include\util\atomic.h ****    All rights reserved.
   3:c:\program files (x86)\atmel\studio\7.0\toolchain\avr8\avr8-gnu-toolchain\avr\include\util\atomic.h **** 
   4:c:\program files (x86)\atmel\studio\7.0\toolchain\avr8\avr8-gnu-toolchain\avr\include\util\atomic.h ****    Redistribution and use in source and binary forms, with or without
   5:c:\program files (x86)\atmel\studio\7.0\toolchain\avr8\avr8-gnu-toolchain\avr\include\util\atomic.h ****    modification, are permitted provided that the following conditions are met:
   6:c:\program files (x86)\atmel\studio\7.0\toolchain\avr8\avr8-gnu-toolchain\avr\include\util\atomic.h **** 
   7:c:\program files (x86)\atmel\studio\7.0\toolchain\avr8\avr8-gnu-toolchain\avr\include\util\atomic.h ****    * Redistributions of source code must retain the above copyright
   8:c:\program files (x86)\atmel\studio\7.0\toolchain\avr8\avr8-gnu-toolchain\avr\include\util\atomic.h ****      notice, this list of conditions and the following disclaimer.
   9:c:\program files (x86)\atmel\studio\7.0\toolchain\avr8\avr8-gnu-toolchain\avr\include\util\atomic.h **** 
  10:c:\program files (x86)\atmel\studio\7.0\toolchain\avr8\avr8-gnu-toolchain\avr\include\util\atomic.h ****    * Redistributions in binary form must reproduce the above copyright
  11:c:\program files (x86)\atmel\studio\7.0\toolchain\avr8\avr8-gnu-toolchain\avr\include\util\atomic.h ****      notice, this list of conditions and the following disclaimer in
  12:c:\program files (x86)\atmel\studio\7.0\toolchain\avr8\avr8-gnu-toolchain\avr\include\util\atomic.h ****      the documentation and/or other materials provided with the
  13:c:\program files (x86)\atmel\studio\7.0\toolchain\avr8\avr8-gnu-toolchain\avr\include\util\atomic.h ****      distribution.
  14:c:\program files (x86)\atmel\studio\7.0\toolchain\avr8\avr8-gnu-toolchain\avr\include\util\atomic.h **** 
  15:c:\program files (x86)\atmel\studio\7.0\toolchain\avr8\avr8-gnu-toolchain\avr\include\util\atomic.h ****    * Neither the name of the copyright holders nor the names of
  16:c:\program files (x86)\atmel\studio\7.0\toolchain\avr8\avr8-gnu-toolchain\avr\include\util\atomic.h ****      contributors may be used to endorse or promote products derived
  17:c:\program files (x86)\atmel\studio\7.0\toolchain\avr8\avr8-gnu-toolchain\avr\include\util\atomic.h ****      from this software without specific prior written permission.
  18:c:\program files (x86)\atmel\studio\7.0\toolchain\avr8\avr8-gnu-toolchain\avr\include\util\atomic.h **** 
  19:c:\program files (x86)\atmel\studio\7.0\toolchain\avr8\avr8-gnu-toolchain\avr\include\util\atomic.h ****   THIS SOFTWARE IS PROVIDED BY THE COPYRIGHT HOLDERS AND CONTRIBUTORS "AS IS"
  20:c:\program files (x86)\atmel\studio\7.0\toolchain\avr8\avr8-gnu-toolchain\avr\include\util\atomic.h ****   AND ANY EXPRESS OR IMPLIED WARRANTIES, INCLUDING, BUT NOT LIMITED TO, THE
  21:c:\program files (x86)\atmel\studio\7.0\toolchain\avr8\avr8-gnu-toolchain\avr\include\util\atomic.h ****   IMPLIED WARRANTIES OF MERCHANTABILITY AND FITNESS FOR A PARTICULAR PURPOSE
  22:c:\program files (x86)\atmel\studio\7.0\toolchain\avr8\avr8-gnu-toolchain\avr\include\util\atomic.h ****   ARE DISCLAIMED. IN NO EVENT SHALL THE COPYRIGHT OWNER OR CONTRIBUTORS BE
  23:c:\program files (x86)\atmel\studio\7.0\toolchain\avr8\avr8-gnu-toolchain\avr\include\util\atomic.h ****   LIABLE FOR ANY DIRECT, INDIRECT, INCIDENTAL, SPECIAL, EXEMPLARY, OR
  24:c:\program files (x86)\atmel\studio\7.0\toolchain\avr8\avr8-gnu-toolchain\avr\include\util\atomic.h ****   CONSEQUENTIAL DAMAGES (INCLUDING, BUT NOT LIMITED TO, PROCUREMENT OF
  25:c:\program files (x86)\atmel\studio\7.0\toolchain\avr8\avr8-gnu-toolchain\avr\include\util\atomic.h ****   SUBSTITUTE GOODS OR SERVICES; LOSS OF USE, DATA, OR PROFITS; OR BUSINESS
  26:c:\program files (x86)\atmel\studio\7.0\toolchain\avr8\avr8-gnu-toolchain\avr\include\util\atomic.h ****   INTERRUPTION) HOWEVER CAUSED AND ON ANY THEORY OF LIABILITY, WHETHER IN
  27:c:\program files (x86)\atmel\studio\7.0\toolchain\avr8\avr8-gnu-toolchain\avr\include\util\atomic.h ****   CONTRACT, STRICT LIABILITY, OR TORT (INCLUDING NEGLIGENCE OR OTHERWISE)
  28:c:\program files (x86)\atmel\studio\7.0\toolchain\avr8\avr8-gnu-toolchain\avr\include\util\atomic.h ****   ARISING IN ANY WAY OUT OF THE USE OF THIS SOFTWARE, EVEN IF ADVISED OF THE
  29:c:\program files (x86)\atmel\studio\7.0\toolchain\avr8\avr8-gnu-toolchain\avr\include\util\atomic.h ****   POSSIBILITY OF SUCH DAMAGE.
  30:c:\program files (x86)\atmel\studio\7.0\toolchain\avr8\avr8-gnu-toolchain\avr\include\util\atomic.h **** */
  31:c:\program files (x86)\atmel\studio\7.0\toolchain\avr8\avr8-gnu-toolchain\avr\include\util\atomic.h **** 
  32:c:\program files (x86)\atmel\studio\7.0\toolchain\avr8\avr8-gnu-toolchain\avr\include\util\atomic.h **** /* $Id$ */
  33:c:\program files (x86)\atmel\studio\7.0\toolchain\avr8\avr8-gnu-toolchain\avr\include\util\atomic.h **** 
  34:c:\program files (x86)\atmel\studio\7.0\toolchain\avr8\avr8-gnu-toolchain\avr\include\util\atomic.h **** #ifndef _UTIL_ATOMIC_H_
  35:c:\program files (x86)\atmel\studio\7.0\toolchain\avr8\avr8-gnu-toolchain\avr\include\util\atomic.h **** #define _UTIL_ATOMIC_H_ 1
  36:c:\program files (x86)\atmel\studio\7.0\toolchain\avr8\avr8-gnu-toolchain\avr\include\util\atomic.h **** 
  37:c:\program files (x86)\atmel\studio\7.0\toolchain\avr8\avr8-gnu-toolchain\avr\include\util\atomic.h **** #include <avr/io.h>
  38:c:\program files (x86)\atmel\studio\7.0\toolchain\avr8\avr8-gnu-toolchain\avr\include\util\atomic.h **** #include <avr/interrupt.h>
  39:c:\program files (x86)\atmel\studio\7.0\toolchain\avr8\avr8-gnu-toolchain\avr\include\util\atomic.h **** 
  40:c:\program files (x86)\atmel\studio\7.0\toolchain\avr8\avr8-gnu-toolchain\avr\include\util\atomic.h **** #if !defined(__DOXYGEN__)
  41:c:\program files (x86)\atmel\studio\7.0\toolchain\avr8\avr8-gnu-toolchain\avr\include\util\atomic.h **** /* Internal helper functions. */
  42:c:\program files (x86)\atmel\studio\7.0\toolchain\avr8\avr8-gnu-toolchain\avr\include\util\atomic.h **** static __inline__ uint8_t __iSeiRetVal(void)
  43:c:\program files (x86)\atmel\studio\7.0\toolchain\avr8\avr8-gnu-toolchain\avr\include\util\atomic.h **** {
  44:c:\program files (x86)\atmel\studio\7.0\toolchain\avr8\avr8-gnu-toolchain\avr\include\util\atomic.h ****     sei();
  45:c:\program files (x86)\atmel\studio\7.0\toolchain\avr8\avr8-gnu-toolchain\avr\include\util\atomic.h ****     return 1;
  46:c:\program files (x86)\atmel\studio\7.0\toolchain\avr8\avr8-gnu-toolchain\avr\include\util\atomic.h **** }
  47:c:\program files (x86)\atmel\studio\7.0\toolchain\avr8\avr8-gnu-toolchain\avr\include\util\atomic.h **** 
  48:c:\program files (x86)\atmel\studio\7.0\toolchain\avr8\avr8-gnu-toolchain\avr\include\util\atomic.h **** static __inline__ uint8_t __iCliRetVal(void)
  49:c:\program files (x86)\atmel\studio\7.0\toolchain\avr8\avr8-gnu-toolchain\avr\include\util\atomic.h **** {
  50:c:\program files (x86)\atmel\studio\7.0\toolchain\avr8\avr8-gnu-toolchain\avr\include\util\atomic.h ****     cli();
 236               		.loc 2 50 0
 237               	/* #APP */
 238               	 ;  50 "c:\program files (x86)\atmel\studio\7.0\toolchain\avr8\avr8-gnu-toolchain\avr\include\util\
 239 000c F894      		cli
 240               	 ;  0 "" 2
 241               	.LVL2:
 242               	/* #NOAPP */
 243               	.LBE43:
 244               	.LBE42:
  58:../src/power.c **** 	{
  59:../src/power.c **** 		switch (leg)
 245               		.loc 1 59 0
 246 000e 8130      		cpi r24,lo8(1)
 247 0010 01F0      		breq .L16
 248 0012 8230      		cpi r24,lo8(2)
 249 0014 01F4      		brne .L32
  60:../src/power.c **** 		{
  61:../src/power.c **** 			case 1:
  62:../src/power.c **** 				ACA.AC0MUXCTRL = AC_MUXNEG_PIN0_gc | AC_MUXPOS_PIN3_gc;
  63:../src/power.c **** 				ACA.AC1MUXCTRL = AC_MUXNEG_PIN1_gc | AC_MUXPOS_PIN3_gc;
  64:../src/power.c **** 				break;
  65:../src/power.c **** 			case 2:
  66:../src/power.c **** 				ACA.AC0MUXCTRL = AC_MUXNEG_PIN0_gc | AC_MUXPOS_PIN4_gc;
 250               		.loc 1 66 0
 251 0016 80E2      		ldi r24,lo8(32)
 252               	.LVL3:
 253 0018 8093 8203 		sts 898,r24
  67:../src/power.c **** 				ACA.AC1MUXCTRL = AC_MUXNEG_PIN1_gc | AC_MUXPOS_PIN4_gc;
 254               		.loc 1 67 0
 255 001c 81E2      		ldi r24,lo8(33)
 256 001e 8093 8303 		sts 899,r24
 257               	.L18:
 258               	.LVL4:
 259               	.LBB44:
 260               	.LBB45:
 261               	.LBB46:
 262               		.file 3 "c:\\program files (x86)\\atmel\\studio\\7.0\\toolchain\\avr8\\avr8-gnu-toolchain\\avr\\in
   1:c:\program files (x86)\atmel\studio\7.0\toolchain\avr8\avr8-gnu-toolchain\avr\include\util\delay.h **** /* Copyright (c) 2002, Marek Michalkiewicz
   2:c:\program files (x86)\atmel\studio\7.0\toolchain\avr8\avr8-gnu-toolchain\avr\include\util\delay.h ****    Copyright (c) 2004,2005,2007 Joerg Wunsch
   3:c:\program files (x86)\atmel\studio\7.0\toolchain\avr8\avr8-gnu-toolchain\avr\include\util\delay.h ****    Copyright (c) 2007  Florin-Viorel Petrov
   4:c:\program files (x86)\atmel\studio\7.0\toolchain\avr8\avr8-gnu-toolchain\avr\include\util\delay.h ****    All rights reserved.
   5:c:\program files (x86)\atmel\studio\7.0\toolchain\avr8\avr8-gnu-toolchain\avr\include\util\delay.h **** 
   6:c:\program files (x86)\atmel\studio\7.0\toolchain\avr8\avr8-gnu-toolchain\avr\include\util\delay.h ****    Redistribution and use in source and binary forms, with or without
   7:c:\program files (x86)\atmel\studio\7.0\toolchain\avr8\avr8-gnu-toolchain\avr\include\util\delay.h ****    modification, are permitted provided that the following conditions are met:
   8:c:\program files (x86)\atmel\studio\7.0\toolchain\avr8\avr8-gnu-toolchain\avr\include\util\delay.h **** 
   9:c:\program files (x86)\atmel\studio\7.0\toolchain\avr8\avr8-gnu-toolchain\avr\include\util\delay.h ****    * Redistributions of source code must retain the above copyright
  10:c:\program files (x86)\atmel\studio\7.0\toolchain\avr8\avr8-gnu-toolchain\avr\include\util\delay.h ****      notice, this list of conditions and the following disclaimer.
  11:c:\program files (x86)\atmel\studio\7.0\toolchain\avr8\avr8-gnu-toolchain\avr\include\util\delay.h **** 
  12:c:\program files (x86)\atmel\studio\7.0\toolchain\avr8\avr8-gnu-toolchain\avr\include\util\delay.h ****    * Redistributions in binary form must reproduce the above copyright
  13:c:\program files (x86)\atmel\studio\7.0\toolchain\avr8\avr8-gnu-toolchain\avr\include\util\delay.h ****      notice, this list of conditions and the following disclaimer in
  14:c:\program files (x86)\atmel\studio\7.0\toolchain\avr8\avr8-gnu-toolchain\avr\include\util\delay.h ****      the documentation and/or other materials provided with the
  15:c:\program files (x86)\atmel\studio\7.0\toolchain\avr8\avr8-gnu-toolchain\avr\include\util\delay.h ****      distribution.
  16:c:\program files (x86)\atmel\studio\7.0\toolchain\avr8\avr8-gnu-toolchain\avr\include\util\delay.h **** 
  17:c:\program files (x86)\atmel\studio\7.0\toolchain\avr8\avr8-gnu-toolchain\avr\include\util\delay.h ****    * Neither the name of the copyright holders nor the names of
  18:c:\program files (x86)\atmel\studio\7.0\toolchain\avr8\avr8-gnu-toolchain\avr\include\util\delay.h ****      contributors may be used to endorse or promote products derived
  19:c:\program files (x86)\atmel\studio\7.0\toolchain\avr8\avr8-gnu-toolchain\avr\include\util\delay.h ****      from this software without specific prior written permission.
  20:c:\program files (x86)\atmel\studio\7.0\toolchain\avr8\avr8-gnu-toolchain\avr\include\util\delay.h **** 
  21:c:\program files (x86)\atmel\studio\7.0\toolchain\avr8\avr8-gnu-toolchain\avr\include\util\delay.h ****   THIS SOFTWARE IS PROVIDED BY THE COPYRIGHT HOLDERS AND CONTRIBUTORS "AS IS"
  22:c:\program files (x86)\atmel\studio\7.0\toolchain\avr8\avr8-gnu-toolchain\avr\include\util\delay.h ****   AND ANY EXPRESS OR IMPLIED WARRANTIES, INCLUDING, BUT NOT LIMITED TO, THE
  23:c:\program files (x86)\atmel\studio\7.0\toolchain\avr8\avr8-gnu-toolchain\avr\include\util\delay.h ****   IMPLIED WARRANTIES OF MERCHANTABILITY AND FITNESS FOR A PARTICULAR PURPOSE
  24:c:\program files (x86)\atmel\studio\7.0\toolchain\avr8\avr8-gnu-toolchain\avr\include\util\delay.h ****   ARE DISCLAIMED. IN NO EVENT SHALL THE COPYRIGHT OWNER OR CONTRIBUTORS BE
  25:c:\program files (x86)\atmel\studio\7.0\toolchain\avr8\avr8-gnu-toolchain\avr\include\util\delay.h ****   LIABLE FOR ANY DIRECT, INDIRECT, INCIDENTAL, SPECIAL, EXEMPLARY, OR
  26:c:\program files (x86)\atmel\studio\7.0\toolchain\avr8\avr8-gnu-toolchain\avr\include\util\delay.h ****   CONSEQUENTIAL DAMAGES (INCLUDING, BUT NOT LIMITED TO, PROCUREMENT OF
  27:c:\program files (x86)\atmel\studio\7.0\toolchain\avr8\avr8-gnu-toolchain\avr\include\util\delay.h ****   SUBSTITUTE GOODS OR SERVICES; LOSS OF USE, DATA, OR PROFITS; OR BUSINESS
  28:c:\program files (x86)\atmel\studio\7.0\toolchain\avr8\avr8-gnu-toolchain\avr\include\util\delay.h ****   INTERRUPTION) HOWEVER CAUSED AND ON ANY THEORY OF LIABILITY, WHETHER IN
  29:c:\program files (x86)\atmel\studio\7.0\toolchain\avr8\avr8-gnu-toolchain\avr\include\util\delay.h ****   CONTRACT, STRICT LIABILITY, OR TORT (INCLUDING NEGLIGENCE OR OTHERWISE)
  30:c:\program files (x86)\atmel\studio\7.0\toolchain\avr8\avr8-gnu-toolchain\avr\include\util\delay.h ****   ARISING IN ANY WAY OUT OF THE USE OF THIS SOFTWARE, EVEN IF ADVISED OF THE
  31:c:\program files (x86)\atmel\studio\7.0\toolchain\avr8\avr8-gnu-toolchain\avr\include\util\delay.h ****   POSSIBILITY OF SUCH DAMAGE. */
  32:c:\program files (x86)\atmel\studio\7.0\toolchain\avr8\avr8-gnu-toolchain\avr\include\util\delay.h **** 
  33:c:\program files (x86)\atmel\studio\7.0\toolchain\avr8\avr8-gnu-toolchain\avr\include\util\delay.h **** /* $Id$ */
  34:c:\program files (x86)\atmel\studio\7.0\toolchain\avr8\avr8-gnu-toolchain\avr\include\util\delay.h **** 
  35:c:\program files (x86)\atmel\studio\7.0\toolchain\avr8\avr8-gnu-toolchain\avr\include\util\delay.h **** #ifndef _UTIL_DELAY_H_
  36:c:\program files (x86)\atmel\studio\7.0\toolchain\avr8\avr8-gnu-toolchain\avr\include\util\delay.h **** #define _UTIL_DELAY_H_ 1
  37:c:\program files (x86)\atmel\studio\7.0\toolchain\avr8\avr8-gnu-toolchain\avr\include\util\delay.h **** 
  38:c:\program files (x86)\atmel\studio\7.0\toolchain\avr8\avr8-gnu-toolchain\avr\include\util\delay.h **** #ifndef __DOXYGEN__
  39:c:\program files (x86)\atmel\studio\7.0\toolchain\avr8\avr8-gnu-toolchain\avr\include\util\delay.h **** #  ifndef __HAS_DELAY_CYCLES
  40:c:\program files (x86)\atmel\studio\7.0\toolchain\avr8\avr8-gnu-toolchain\avr\include\util\delay.h **** #    define __HAS_DELAY_CYCLES 1
  41:c:\program files (x86)\atmel\studio\7.0\toolchain\avr8\avr8-gnu-toolchain\avr\include\util\delay.h **** #  endif
  42:c:\program files (x86)\atmel\studio\7.0\toolchain\avr8\avr8-gnu-toolchain\avr\include\util\delay.h **** #endif  /* __DOXYGEN__ */
  43:c:\program files (x86)\atmel\studio\7.0\toolchain\avr8\avr8-gnu-toolchain\avr\include\util\delay.h **** 
  44:c:\program files (x86)\atmel\studio\7.0\toolchain\avr8\avr8-gnu-toolchain\avr\include\util\delay.h **** #include <inttypes.h>
  45:c:\program files (x86)\atmel\studio\7.0\toolchain\avr8\avr8-gnu-toolchain\avr\include\util\delay.h **** #include <util/delay_basic.h>
  46:c:\program files (x86)\atmel\studio\7.0\toolchain\avr8\avr8-gnu-toolchain\avr\include\util\delay.h **** #include <math.h>
  47:c:\program files (x86)\atmel\studio\7.0\toolchain\avr8\avr8-gnu-toolchain\avr\include\util\delay.h **** 
  48:c:\program files (x86)\atmel\studio\7.0\toolchain\avr8\avr8-gnu-toolchain\avr\include\util\delay.h **** /** \file */
  49:c:\program files (x86)\atmel\studio\7.0\toolchain\avr8\avr8-gnu-toolchain\avr\include\util\delay.h **** /** \defgroup util_delay <util/delay.h>: Convenience functions for busy-wait delay loops
  50:c:\program files (x86)\atmel\studio\7.0\toolchain\avr8\avr8-gnu-toolchain\avr\include\util\delay.h ****     \code
  51:c:\program files (x86)\atmel\studio\7.0\toolchain\avr8\avr8-gnu-toolchain\avr\include\util\delay.h ****     #define F_CPU 1000000UL  // 1 MHz
  52:c:\program files (x86)\atmel\studio\7.0\toolchain\avr8\avr8-gnu-toolchain\avr\include\util\delay.h ****     //#define F_CPU 14.7456E6
  53:c:\program files (x86)\atmel\studio\7.0\toolchain\avr8\avr8-gnu-toolchain\avr\include\util\delay.h ****     #include <util/delay.h>
  54:c:\program files (x86)\atmel\studio\7.0\toolchain\avr8\avr8-gnu-toolchain\avr\include\util\delay.h ****     \endcode
  55:c:\program files (x86)\atmel\studio\7.0\toolchain\avr8\avr8-gnu-toolchain\avr\include\util\delay.h **** 
  56:c:\program files (x86)\atmel\studio\7.0\toolchain\avr8\avr8-gnu-toolchain\avr\include\util\delay.h ****     \note As an alternative method, it is possible to pass the
  57:c:\program files (x86)\atmel\studio\7.0\toolchain\avr8\avr8-gnu-toolchain\avr\include\util\delay.h ****     F_CPU macro down to the compiler from the Makefile.
  58:c:\program files (x86)\atmel\studio\7.0\toolchain\avr8\avr8-gnu-toolchain\avr\include\util\delay.h ****     Obviously, in that case, no \c \#define statement should be
  59:c:\program files (x86)\atmel\studio\7.0\toolchain\avr8\avr8-gnu-toolchain\avr\include\util\delay.h ****     used.
  60:c:\program files (x86)\atmel\studio\7.0\toolchain\avr8\avr8-gnu-toolchain\avr\include\util\delay.h **** 
  61:c:\program files (x86)\atmel\studio\7.0\toolchain\avr8\avr8-gnu-toolchain\avr\include\util\delay.h ****     The functions in this header file are wrappers around the basic
  62:c:\program files (x86)\atmel\studio\7.0\toolchain\avr8\avr8-gnu-toolchain\avr\include\util\delay.h ****     busy-wait functions from <util/delay_basic.h>.  They are meant as
  63:c:\program files (x86)\atmel\studio\7.0\toolchain\avr8\avr8-gnu-toolchain\avr\include\util\delay.h ****     convenience functions where actual time values can be specified
  64:c:\program files (x86)\atmel\studio\7.0\toolchain\avr8\avr8-gnu-toolchain\avr\include\util\delay.h ****     rather than a number of cycles to wait for.  The idea behind is
  65:c:\program files (x86)\atmel\studio\7.0\toolchain\avr8\avr8-gnu-toolchain\avr\include\util\delay.h ****     that compile-time constant expressions will be eliminated by
  66:c:\program files (x86)\atmel\studio\7.0\toolchain\avr8\avr8-gnu-toolchain\avr\include\util\delay.h ****     compiler optimization so floating-point expressions can be used
  67:c:\program files (x86)\atmel\studio\7.0\toolchain\avr8\avr8-gnu-toolchain\avr\include\util\delay.h ****     to calculate the number of delay cycles needed based on the CPU
  68:c:\program files (x86)\atmel\studio\7.0\toolchain\avr8\avr8-gnu-toolchain\avr\include\util\delay.h ****     frequency passed by the macro F_CPU.
  69:c:\program files (x86)\atmel\studio\7.0\toolchain\avr8\avr8-gnu-toolchain\avr\include\util\delay.h **** 
  70:c:\program files (x86)\atmel\studio\7.0\toolchain\avr8\avr8-gnu-toolchain\avr\include\util\delay.h ****     \note In order for these functions to work as intended, compiler
  71:c:\program files (x86)\atmel\studio\7.0\toolchain\avr8\avr8-gnu-toolchain\avr\include\util\delay.h ****     optimizations <em>must</em> be enabled, and the delay time
  72:c:\program files (x86)\atmel\studio\7.0\toolchain\avr8\avr8-gnu-toolchain\avr\include\util\delay.h ****     <em>must</em> be an expression that is a known constant at
  73:c:\program files (x86)\atmel\studio\7.0\toolchain\avr8\avr8-gnu-toolchain\avr\include\util\delay.h ****     compile-time.  If these requirements are not met, the resulting
  74:c:\program files (x86)\atmel\studio\7.0\toolchain\avr8\avr8-gnu-toolchain\avr\include\util\delay.h ****     delay will be much longer (and basically unpredictable), and
  75:c:\program files (x86)\atmel\studio\7.0\toolchain\avr8\avr8-gnu-toolchain\avr\include\util\delay.h ****     applications that otherwise do not use floating-point calculations
  76:c:\program files (x86)\atmel\studio\7.0\toolchain\avr8\avr8-gnu-toolchain\avr\include\util\delay.h ****     will experience severe code bloat by the floating-point library
  77:c:\program files (x86)\atmel\studio\7.0\toolchain\avr8\avr8-gnu-toolchain\avr\include\util\delay.h ****     routines linked into the application.
  78:c:\program files (x86)\atmel\studio\7.0\toolchain\avr8\avr8-gnu-toolchain\avr\include\util\delay.h **** 
  79:c:\program files (x86)\atmel\studio\7.0\toolchain\avr8\avr8-gnu-toolchain\avr\include\util\delay.h ****     The functions available allow the specification of microsecond, and
  80:c:\program files (x86)\atmel\studio\7.0\toolchain\avr8\avr8-gnu-toolchain\avr\include\util\delay.h ****     millisecond delays directly, using the application-supplied macro
  81:c:\program files (x86)\atmel\studio\7.0\toolchain\avr8\avr8-gnu-toolchain\avr\include\util\delay.h ****     F_CPU as the CPU clock frequency (in Hertz).
  82:c:\program files (x86)\atmel\studio\7.0\toolchain\avr8\avr8-gnu-toolchain\avr\include\util\delay.h **** 
  83:c:\program files (x86)\atmel\studio\7.0\toolchain\avr8\avr8-gnu-toolchain\avr\include\util\delay.h **** */
  84:c:\program files (x86)\atmel\studio\7.0\toolchain\avr8\avr8-gnu-toolchain\avr\include\util\delay.h **** 
  85:c:\program files (x86)\atmel\studio\7.0\toolchain\avr8\avr8-gnu-toolchain\avr\include\util\delay.h **** #if !defined(__DOXYGEN__)
  86:c:\program files (x86)\atmel\studio\7.0\toolchain\avr8\avr8-gnu-toolchain\avr\include\util\delay.h **** static __inline__ void _delay_us(double __us) __attribute__((__always_inline__));
  87:c:\program files (x86)\atmel\studio\7.0\toolchain\avr8\avr8-gnu-toolchain\avr\include\util\delay.h **** static __inline__ void _delay_ms(double __ms) __attribute__((__always_inline__));
  88:c:\program files (x86)\atmel\studio\7.0\toolchain\avr8\avr8-gnu-toolchain\avr\include\util\delay.h **** #endif
  89:c:\program files (x86)\atmel\studio\7.0\toolchain\avr8\avr8-gnu-toolchain\avr\include\util\delay.h **** 
  90:c:\program files (x86)\atmel\studio\7.0\toolchain\avr8\avr8-gnu-toolchain\avr\include\util\delay.h **** #ifndef F_CPU
  91:c:\program files (x86)\atmel\studio\7.0\toolchain\avr8\avr8-gnu-toolchain\avr\include\util\delay.h **** /* prevent compiler error by supplying a default */
  92:c:\program files (x86)\atmel\studio\7.0\toolchain\avr8\avr8-gnu-toolchain\avr\include\util\delay.h **** # warning "F_CPU not defined for <util/delay.h>"
  93:c:\program files (x86)\atmel\studio\7.0\toolchain\avr8\avr8-gnu-toolchain\avr\include\util\delay.h **** /** \ingroup util_delay
  94:c:\program files (x86)\atmel\studio\7.0\toolchain\avr8\avr8-gnu-toolchain\avr\include\util\delay.h ****     \def F_CPU
  95:c:\program files (x86)\atmel\studio\7.0\toolchain\avr8\avr8-gnu-toolchain\avr\include\util\delay.h ****     \brief CPU frequency in Hz
  96:c:\program files (x86)\atmel\studio\7.0\toolchain\avr8\avr8-gnu-toolchain\avr\include\util\delay.h **** 
  97:c:\program files (x86)\atmel\studio\7.0\toolchain\avr8\avr8-gnu-toolchain\avr\include\util\delay.h ****     The macro F_CPU specifies the CPU frequency to be considered by
  98:c:\program files (x86)\atmel\studio\7.0\toolchain\avr8\avr8-gnu-toolchain\avr\include\util\delay.h ****     the delay macros.  This macro is normally supplied by the
  99:c:\program files (x86)\atmel\studio\7.0\toolchain\avr8\avr8-gnu-toolchain\avr\include\util\delay.h ****     environment (e.g. from within a project header, or the project's
 100:c:\program files (x86)\atmel\studio\7.0\toolchain\avr8\avr8-gnu-toolchain\avr\include\util\delay.h ****     Makefile).  The value 1 MHz here is only provided as a "vanilla"
 101:c:\program files (x86)\atmel\studio\7.0\toolchain\avr8\avr8-gnu-toolchain\avr\include\util\delay.h ****     fallback if no such user-provided definition could be found.
 102:c:\program files (x86)\atmel\studio\7.0\toolchain\avr8\avr8-gnu-toolchain\avr\include\util\delay.h **** 
 103:c:\program files (x86)\atmel\studio\7.0\toolchain\avr8\avr8-gnu-toolchain\avr\include\util\delay.h ****     In terms of the delay functions, the CPU frequency can be given as
 104:c:\program files (x86)\atmel\studio\7.0\toolchain\avr8\avr8-gnu-toolchain\avr\include\util\delay.h ****     a floating-point constant (e.g. 3.6864E6 for 3.6864 MHz).
 105:c:\program files (x86)\atmel\studio\7.0\toolchain\avr8\avr8-gnu-toolchain\avr\include\util\delay.h ****     However, the macros in <util/setbaud.h> require it to be an
 106:c:\program files (x86)\atmel\studio\7.0\toolchain\avr8\avr8-gnu-toolchain\avr\include\util\delay.h ****     integer value.
 107:c:\program files (x86)\atmel\studio\7.0\toolchain\avr8\avr8-gnu-toolchain\avr\include\util\delay.h ****  */
 108:c:\program files (x86)\atmel\studio\7.0\toolchain\avr8\avr8-gnu-toolchain\avr\include\util\delay.h **** # define F_CPU 1000000UL
 109:c:\program files (x86)\atmel\studio\7.0\toolchain\avr8\avr8-gnu-toolchain\avr\include\util\delay.h **** #endif
 110:c:\program files (x86)\atmel\studio\7.0\toolchain\avr8\avr8-gnu-toolchain\avr\include\util\delay.h **** 
 111:c:\program files (x86)\atmel\studio\7.0\toolchain\avr8\avr8-gnu-toolchain\avr\include\util\delay.h **** #ifndef __OPTIMIZE__
 112:c:\program files (x86)\atmel\studio\7.0\toolchain\avr8\avr8-gnu-toolchain\avr\include\util\delay.h **** # warning "Compiler optimizations disabled; functions from <util/delay.h> won't work as designed"
 113:c:\program files (x86)\atmel\studio\7.0\toolchain\avr8\avr8-gnu-toolchain\avr\include\util\delay.h **** #endif
 114:c:\program files (x86)\atmel\studio\7.0\toolchain\avr8\avr8-gnu-toolchain\avr\include\util\delay.h **** 
 115:c:\program files (x86)\atmel\studio\7.0\toolchain\avr8\avr8-gnu-toolchain\avr\include\util\delay.h **** #if __HAS_DELAY_CYCLES && defined(__OPTIMIZE__) && \
 116:c:\program files (x86)\atmel\studio\7.0\toolchain\avr8\avr8-gnu-toolchain\avr\include\util\delay.h ****   !defined(__DELAY_BACKWARD_COMPATIBLE__) &&	   \
 117:c:\program files (x86)\atmel\studio\7.0\toolchain\avr8\avr8-gnu-toolchain\avr\include\util\delay.h ****   __STDC_HOSTED__
 118:c:\program files (x86)\atmel\studio\7.0\toolchain\avr8\avr8-gnu-toolchain\avr\include\util\delay.h **** #  include <math.h>
 119:c:\program files (x86)\atmel\studio\7.0\toolchain\avr8\avr8-gnu-toolchain\avr\include\util\delay.h **** #endif
 120:c:\program files (x86)\atmel\studio\7.0\toolchain\avr8\avr8-gnu-toolchain\avr\include\util\delay.h **** 
 121:c:\program files (x86)\atmel\studio\7.0\toolchain\avr8\avr8-gnu-toolchain\avr\include\util\delay.h **** /**
 122:c:\program files (x86)\atmel\studio\7.0\toolchain\avr8\avr8-gnu-toolchain\avr\include\util\delay.h ****    \ingroup util_delay
 123:c:\program files (x86)\atmel\studio\7.0\toolchain\avr8\avr8-gnu-toolchain\avr\include\util\delay.h **** 
 124:c:\program files (x86)\atmel\studio\7.0\toolchain\avr8\avr8-gnu-toolchain\avr\include\util\delay.h ****    Perform a delay of \c __ms milliseconds, using _delay_loop_2().
 125:c:\program files (x86)\atmel\studio\7.0\toolchain\avr8\avr8-gnu-toolchain\avr\include\util\delay.h **** 
 126:c:\program files (x86)\atmel\studio\7.0\toolchain\avr8\avr8-gnu-toolchain\avr\include\util\delay.h ****    The macro F_CPU is supposed to be defined to a
 127:c:\program files (x86)\atmel\studio\7.0\toolchain\avr8\avr8-gnu-toolchain\avr\include\util\delay.h ****    constant defining the CPU clock frequency (in Hertz).
 128:c:\program files (x86)\atmel\studio\7.0\toolchain\avr8\avr8-gnu-toolchain\avr\include\util\delay.h **** 
 129:c:\program files (x86)\atmel\studio\7.0\toolchain\avr8\avr8-gnu-toolchain\avr\include\util\delay.h ****    The maximal possible delay is 262.14 ms / F_CPU in MHz.
 130:c:\program files (x86)\atmel\studio\7.0\toolchain\avr8\avr8-gnu-toolchain\avr\include\util\delay.h **** 
 131:c:\program files (x86)\atmel\studio\7.0\toolchain\avr8\avr8-gnu-toolchain\avr\include\util\delay.h ****    When the user request delay which exceed the maximum possible one,
 132:c:\program files (x86)\atmel\studio\7.0\toolchain\avr8\avr8-gnu-toolchain\avr\include\util\delay.h ****    _delay_ms() provides a decreased resolution functionality. In this
 133:c:\program files (x86)\atmel\studio\7.0\toolchain\avr8\avr8-gnu-toolchain\avr\include\util\delay.h ****    mode _delay_ms() will work with a resolution of 1/10 ms, providing
 134:c:\program files (x86)\atmel\studio\7.0\toolchain\avr8\avr8-gnu-toolchain\avr\include\util\delay.h ****    delays up to 6.5535 seconds (independent from CPU frequency).  The
 135:c:\program files (x86)\atmel\studio\7.0\toolchain\avr8\avr8-gnu-toolchain\avr\include\util\delay.h ****    user will not be informed about decreased resolution.
 136:c:\program files (x86)\atmel\studio\7.0\toolchain\avr8\avr8-gnu-toolchain\avr\include\util\delay.h **** 
 137:c:\program files (x86)\atmel\studio\7.0\toolchain\avr8\avr8-gnu-toolchain\avr\include\util\delay.h ****    If the avr-gcc toolchain has __builtin_avr_delay_cycles()
 138:c:\program files (x86)\atmel\studio\7.0\toolchain\avr8\avr8-gnu-toolchain\avr\include\util\delay.h ****    support, maximal possible delay is 4294967.295 ms/ F_CPU in MHz. For
 139:c:\program files (x86)\atmel\studio\7.0\toolchain\avr8\avr8-gnu-toolchain\avr\include\util\delay.h ****    values greater than the maximal possible delay, overflows results in
 140:c:\program files (x86)\atmel\studio\7.0\toolchain\avr8\avr8-gnu-toolchain\avr\include\util\delay.h ****    no delay i.e., 0ms.
 141:c:\program files (x86)\atmel\studio\7.0\toolchain\avr8\avr8-gnu-toolchain\avr\include\util\delay.h **** 
 142:c:\program files (x86)\atmel\studio\7.0\toolchain\avr8\avr8-gnu-toolchain\avr\include\util\delay.h ****    Conversion of \c __ms into clock cycles may not always result in
 143:c:\program files (x86)\atmel\studio\7.0\toolchain\avr8\avr8-gnu-toolchain\avr\include\util\delay.h ****    integer.  By default, the clock cycles rounded up to next
 144:c:\program files (x86)\atmel\studio\7.0\toolchain\avr8\avr8-gnu-toolchain\avr\include\util\delay.h ****    integer. This ensures that the user gets at least \c __ms
 145:c:\program files (x86)\atmel\studio\7.0\toolchain\avr8\avr8-gnu-toolchain\avr\include\util\delay.h ****    microseconds of delay.
 146:c:\program files (x86)\atmel\studio\7.0\toolchain\avr8\avr8-gnu-toolchain\avr\include\util\delay.h **** 
 147:c:\program files (x86)\atmel\studio\7.0\toolchain\avr8\avr8-gnu-toolchain\avr\include\util\delay.h ****    Alternatively, by defining the macro \c __DELAY_ROUND_DOWN__, or
 148:c:\program files (x86)\atmel\studio\7.0\toolchain\avr8\avr8-gnu-toolchain\avr\include\util\delay.h ****    \c __DELAY_ROUND_CLOSEST__, before including this header file, the
 149:c:\program files (x86)\atmel\studio\7.0\toolchain\avr8\avr8-gnu-toolchain\avr\include\util\delay.h ****    algorithm can be made to round down, or round to closest integer,
 150:c:\program files (x86)\atmel\studio\7.0\toolchain\avr8\avr8-gnu-toolchain\avr\include\util\delay.h ****    respectively.
 151:c:\program files (x86)\atmel\studio\7.0\toolchain\avr8\avr8-gnu-toolchain\avr\include\util\delay.h **** 
 152:c:\program files (x86)\atmel\studio\7.0\toolchain\avr8\avr8-gnu-toolchain\avr\include\util\delay.h ****    \note
 153:c:\program files (x86)\atmel\studio\7.0\toolchain\avr8\avr8-gnu-toolchain\avr\include\util\delay.h **** 
 154:c:\program files (x86)\atmel\studio\7.0\toolchain\avr8\avr8-gnu-toolchain\avr\include\util\delay.h ****    The implementation of _delay_ms() based on
 155:c:\program files (x86)\atmel\studio\7.0\toolchain\avr8\avr8-gnu-toolchain\avr\include\util\delay.h ****    __builtin_avr_delay_cycles() is not backward compatible with older
 156:c:\program files (x86)\atmel\studio\7.0\toolchain\avr8\avr8-gnu-toolchain\avr\include\util\delay.h ****    implementations.  In order to get functionality backward compatible
 157:c:\program files (x86)\atmel\studio\7.0\toolchain\avr8\avr8-gnu-toolchain\avr\include\util\delay.h ****    with previous versions, the macro \c "__DELAY_BACKWARD_COMPATIBLE__"
 158:c:\program files (x86)\atmel\studio\7.0\toolchain\avr8\avr8-gnu-toolchain\avr\include\util\delay.h ****    must be defined before including this header file. Also, the
 159:c:\program files (x86)\atmel\studio\7.0\toolchain\avr8\avr8-gnu-toolchain\avr\include\util\delay.h ****    backward compatible algorithm will be chosen if the code is
 160:c:\program files (x86)\atmel\studio\7.0\toolchain\avr8\avr8-gnu-toolchain\avr\include\util\delay.h ****    compiled in a <em>freestanding environment</em> (GCC option
 161:c:\program files (x86)\atmel\studio\7.0\toolchain\avr8\avr8-gnu-toolchain\avr\include\util\delay.h ****    \c -ffreestanding), as the math functions required for rounding are
 162:c:\program files (x86)\atmel\studio\7.0\toolchain\avr8\avr8-gnu-toolchain\avr\include\util\delay.h ****    not available to the compiler then.
 163:c:\program files (x86)\atmel\studio\7.0\toolchain\avr8\avr8-gnu-toolchain\avr\include\util\delay.h **** 
 164:c:\program files (x86)\atmel\studio\7.0\toolchain\avr8\avr8-gnu-toolchain\avr\include\util\delay.h ****  */
 165:c:\program files (x86)\atmel\studio\7.0\toolchain\avr8\avr8-gnu-toolchain\avr\include\util\delay.h **** void
 166:c:\program files (x86)\atmel\studio\7.0\toolchain\avr8\avr8-gnu-toolchain\avr\include\util\delay.h **** _delay_ms(double __ms)
 167:c:\program files (x86)\atmel\studio\7.0\toolchain\avr8\avr8-gnu-toolchain\avr\include\util\delay.h **** {
 168:c:\program files (x86)\atmel\studio\7.0\toolchain\avr8\avr8-gnu-toolchain\avr\include\util\delay.h **** 	double __tmp ;
 169:c:\program files (x86)\atmel\studio\7.0\toolchain\avr8\avr8-gnu-toolchain\avr\include\util\delay.h **** #if __HAS_DELAY_CYCLES && defined(__OPTIMIZE__) && \
 170:c:\program files (x86)\atmel\studio\7.0\toolchain\avr8\avr8-gnu-toolchain\avr\include\util\delay.h ****   !defined(__DELAY_BACKWARD_COMPATIBLE__) &&	   \
 171:c:\program files (x86)\atmel\studio\7.0\toolchain\avr8\avr8-gnu-toolchain\avr\include\util\delay.h ****   __STDC_HOSTED__
 172:c:\program files (x86)\atmel\studio\7.0\toolchain\avr8\avr8-gnu-toolchain\avr\include\util\delay.h **** 	uint32_t __ticks_dc;
 173:c:\program files (x86)\atmel\studio\7.0\toolchain\avr8\avr8-gnu-toolchain\avr\include\util\delay.h **** 	extern void __builtin_avr_delay_cycles(unsigned long);
 174:c:\program files (x86)\atmel\studio\7.0\toolchain\avr8\avr8-gnu-toolchain\avr\include\util\delay.h **** 	__tmp = ((F_CPU) / 1e3) * __ms;
 175:c:\program files (x86)\atmel\studio\7.0\toolchain\avr8\avr8-gnu-toolchain\avr\include\util\delay.h **** 
 176:c:\program files (x86)\atmel\studio\7.0\toolchain\avr8\avr8-gnu-toolchain\avr\include\util\delay.h **** 	#if defined(__DELAY_ROUND_DOWN__)
 177:c:\program files (x86)\atmel\studio\7.0\toolchain\avr8\avr8-gnu-toolchain\avr\include\util\delay.h **** 		__ticks_dc = (uint32_t)fabs(__tmp);
 178:c:\program files (x86)\atmel\studio\7.0\toolchain\avr8\avr8-gnu-toolchain\avr\include\util\delay.h **** 
 179:c:\program files (x86)\atmel\studio\7.0\toolchain\avr8\avr8-gnu-toolchain\avr\include\util\delay.h **** 	#elif defined(__DELAY_ROUND_CLOSEST__)
 180:c:\program files (x86)\atmel\studio\7.0\toolchain\avr8\avr8-gnu-toolchain\avr\include\util\delay.h **** 		__ticks_dc = (uint32_t)(fabs(__tmp)+0.5);
 181:c:\program files (x86)\atmel\studio\7.0\toolchain\avr8\avr8-gnu-toolchain\avr\include\util\delay.h **** 
 182:c:\program files (x86)\atmel\studio\7.0\toolchain\avr8\avr8-gnu-toolchain\avr\include\util\delay.h **** 	#else
 183:c:\program files (x86)\atmel\studio\7.0\toolchain\avr8\avr8-gnu-toolchain\avr\include\util\delay.h **** 		//round up by default
 184:c:\program files (x86)\atmel\studio\7.0\toolchain\avr8\avr8-gnu-toolchain\avr\include\util\delay.h **** 		__ticks_dc = (uint32_t)(ceil(fabs(__tmp)));
 185:c:\program files (x86)\atmel\studio\7.0\toolchain\avr8\avr8-gnu-toolchain\avr\include\util\delay.h **** 	#endif
 186:c:\program files (x86)\atmel\studio\7.0\toolchain\avr8\avr8-gnu-toolchain\avr\include\util\delay.h **** 
 187:c:\program files (x86)\atmel\studio\7.0\toolchain\avr8\avr8-gnu-toolchain\avr\include\util\delay.h **** 	__builtin_avr_delay_cycles(__ticks_dc);
 188:c:\program files (x86)\atmel\studio\7.0\toolchain\avr8\avr8-gnu-toolchain\avr\include\util\delay.h **** 
 189:c:\program files (x86)\atmel\studio\7.0\toolchain\avr8\avr8-gnu-toolchain\avr\include\util\delay.h **** #else
 190:c:\program files (x86)\atmel\studio\7.0\toolchain\avr8\avr8-gnu-toolchain\avr\include\util\delay.h **** 	uint16_t __ticks;
 191:c:\program files (x86)\atmel\studio\7.0\toolchain\avr8\avr8-gnu-toolchain\avr\include\util\delay.h **** 	__tmp = ((F_CPU) / 4e3) * __ms;
 192:c:\program files (x86)\atmel\studio\7.0\toolchain\avr8\avr8-gnu-toolchain\avr\include\util\delay.h **** 	if (__tmp < 1.0)
 193:c:\program files (x86)\atmel\studio\7.0\toolchain\avr8\avr8-gnu-toolchain\avr\include\util\delay.h **** 		__ticks = 1;
 194:c:\program files (x86)\atmel\studio\7.0\toolchain\avr8\avr8-gnu-toolchain\avr\include\util\delay.h **** 	else if (__tmp > 65535)
 195:c:\program files (x86)\atmel\studio\7.0\toolchain\avr8\avr8-gnu-toolchain\avr\include\util\delay.h **** 	{
 196:c:\program files (x86)\atmel\studio\7.0\toolchain\avr8\avr8-gnu-toolchain\avr\include\util\delay.h **** 		//	__ticks = requested delay in 1/10 ms
 197:c:\program files (x86)\atmel\studio\7.0\toolchain\avr8\avr8-gnu-toolchain\avr\include\util\delay.h **** 		__ticks = (uint16_t) (__ms * 10.0);
 198:c:\program files (x86)\atmel\studio\7.0\toolchain\avr8\avr8-gnu-toolchain\avr\include\util\delay.h **** 		while(__ticks)
 199:c:\program files (x86)\atmel\studio\7.0\toolchain\avr8\avr8-gnu-toolchain\avr\include\util\delay.h **** 		{
 200:c:\program files (x86)\atmel\studio\7.0\toolchain\avr8\avr8-gnu-toolchain\avr\include\util\delay.h **** 			// wait 1/10 ms
 201:c:\program files (x86)\atmel\studio\7.0\toolchain\avr8\avr8-gnu-toolchain\avr\include\util\delay.h **** 			_delay_loop_2(((F_CPU) / 4e3) / 10);
 202:c:\program files (x86)\atmel\studio\7.0\toolchain\avr8\avr8-gnu-toolchain\avr\include\util\delay.h **** 			__ticks --;
 203:c:\program files (x86)\atmel\studio\7.0\toolchain\avr8\avr8-gnu-toolchain\avr\include\util\delay.h **** 		}
 204:c:\program files (x86)\atmel\studio\7.0\toolchain\avr8\avr8-gnu-toolchain\avr\include\util\delay.h **** 		return;
 205:c:\program files (x86)\atmel\studio\7.0\toolchain\avr8\avr8-gnu-toolchain\avr\include\util\delay.h **** 	}
 206:c:\program files (x86)\atmel\studio\7.0\toolchain\avr8\avr8-gnu-toolchain\avr\include\util\delay.h **** 	else
 207:c:\program files (x86)\atmel\studio\7.0\toolchain\avr8\avr8-gnu-toolchain\avr\include\util\delay.h **** 		__ticks = (uint16_t)__tmp;
 208:c:\program files (x86)\atmel\studio\7.0\toolchain\avr8\avr8-gnu-toolchain\avr\include\util\delay.h **** 	_delay_loop_2(__ticks);
 209:c:\program files (x86)\atmel\studio\7.0\toolchain\avr8\avr8-gnu-toolchain\avr\include\util\delay.h **** #endif
 210:c:\program files (x86)\atmel\studio\7.0\toolchain\avr8\avr8-gnu-toolchain\avr\include\util\delay.h **** }
 211:c:\program files (x86)\atmel\studio\7.0\toolchain\avr8\avr8-gnu-toolchain\avr\include\util\delay.h **** 
 212:c:\program files (x86)\atmel\studio\7.0\toolchain\avr8\avr8-gnu-toolchain\avr\include\util\delay.h **** /**
 213:c:\program files (x86)\atmel\studio\7.0\toolchain\avr8\avr8-gnu-toolchain\avr\include\util\delay.h ****    \ingroup util_delay
 214:c:\program files (x86)\atmel\studio\7.0\toolchain\avr8\avr8-gnu-toolchain\avr\include\util\delay.h **** 
 215:c:\program files (x86)\atmel\studio\7.0\toolchain\avr8\avr8-gnu-toolchain\avr\include\util\delay.h ****    Perform a delay of \c __us microseconds, using _delay_loop_1().
 216:c:\program files (x86)\atmel\studio\7.0\toolchain\avr8\avr8-gnu-toolchain\avr\include\util\delay.h **** 
 217:c:\program files (x86)\atmel\studio\7.0\toolchain\avr8\avr8-gnu-toolchain\avr\include\util\delay.h ****    The macro F_CPU is supposed to be defined to a
 218:c:\program files (x86)\atmel\studio\7.0\toolchain\avr8\avr8-gnu-toolchain\avr\include\util\delay.h ****    constant defining the CPU clock frequency (in Hertz).
 219:c:\program files (x86)\atmel\studio\7.0\toolchain\avr8\avr8-gnu-toolchain\avr\include\util\delay.h **** 
 220:c:\program files (x86)\atmel\studio\7.0\toolchain\avr8\avr8-gnu-toolchain\avr\include\util\delay.h ****    The maximal possible delay is 768 us / F_CPU in MHz.
 221:c:\program files (x86)\atmel\studio\7.0\toolchain\avr8\avr8-gnu-toolchain\avr\include\util\delay.h **** 
 222:c:\program files (x86)\atmel\studio\7.0\toolchain\avr8\avr8-gnu-toolchain\avr\include\util\delay.h ****    If the user requests a delay greater than the maximal possible one,
 223:c:\program files (x86)\atmel\studio\7.0\toolchain\avr8\avr8-gnu-toolchain\avr\include\util\delay.h ****    _delay_us() will automatically call _delay_ms() instead.  The user
 224:c:\program files (x86)\atmel\studio\7.0\toolchain\avr8\avr8-gnu-toolchain\avr\include\util\delay.h ****    will not be informed about this case.
 225:c:\program files (x86)\atmel\studio\7.0\toolchain\avr8\avr8-gnu-toolchain\avr\include\util\delay.h **** 
 226:c:\program files (x86)\atmel\studio\7.0\toolchain\avr8\avr8-gnu-toolchain\avr\include\util\delay.h ****    If the avr-gcc toolchain has __builtin_avr_delay_cycles()
 227:c:\program files (x86)\atmel\studio\7.0\toolchain\avr8\avr8-gnu-toolchain\avr\include\util\delay.h ****    support, maximal possible delay is 4294967.295 us/ F_CPU in MHz. For
 228:c:\program files (x86)\atmel\studio\7.0\toolchain\avr8\avr8-gnu-toolchain\avr\include\util\delay.h ****    values greater than the maximal possible delay, overflow results in
 229:c:\program files (x86)\atmel\studio\7.0\toolchain\avr8\avr8-gnu-toolchain\avr\include\util\delay.h ****    no delay i.e., 0us.
 230:c:\program files (x86)\atmel\studio\7.0\toolchain\avr8\avr8-gnu-toolchain\avr\include\util\delay.h **** 
 231:c:\program files (x86)\atmel\studio\7.0\toolchain\avr8\avr8-gnu-toolchain\avr\include\util\delay.h ****    Conversion of \c __us into clock cycles may not always result in
 232:c:\program files (x86)\atmel\studio\7.0\toolchain\avr8\avr8-gnu-toolchain\avr\include\util\delay.h ****    integer.  By default, the clock cycles rounded up to next
 233:c:\program files (x86)\atmel\studio\7.0\toolchain\avr8\avr8-gnu-toolchain\avr\include\util\delay.h ****    integer. This ensures that the user gets at least \c __us
 234:c:\program files (x86)\atmel\studio\7.0\toolchain\avr8\avr8-gnu-toolchain\avr\include\util\delay.h ****    microseconds of delay.
 235:c:\program files (x86)\atmel\studio\7.0\toolchain\avr8\avr8-gnu-toolchain\avr\include\util\delay.h **** 
 236:c:\program files (x86)\atmel\studio\7.0\toolchain\avr8\avr8-gnu-toolchain\avr\include\util\delay.h ****    Alternatively, by defining the macro \c __DELAY_ROUND_DOWN__, or
 237:c:\program files (x86)\atmel\studio\7.0\toolchain\avr8\avr8-gnu-toolchain\avr\include\util\delay.h ****    \c __DELAY_ROUND_CLOSEST__, before including this header file, the
 238:c:\program files (x86)\atmel\studio\7.0\toolchain\avr8\avr8-gnu-toolchain\avr\include\util\delay.h ****    algorithm can be made to round down, or round to closest integer,
 239:c:\program files (x86)\atmel\studio\7.0\toolchain\avr8\avr8-gnu-toolchain\avr\include\util\delay.h ****    respectively.
 240:c:\program files (x86)\atmel\studio\7.0\toolchain\avr8\avr8-gnu-toolchain\avr\include\util\delay.h **** 
 241:c:\program files (x86)\atmel\studio\7.0\toolchain\avr8\avr8-gnu-toolchain\avr\include\util\delay.h ****    \note
 242:c:\program files (x86)\atmel\studio\7.0\toolchain\avr8\avr8-gnu-toolchain\avr\include\util\delay.h **** 
 243:c:\program files (x86)\atmel\studio\7.0\toolchain\avr8\avr8-gnu-toolchain\avr\include\util\delay.h ****    The implementation of _delay_ms() based on
 244:c:\program files (x86)\atmel\studio\7.0\toolchain\avr8\avr8-gnu-toolchain\avr\include\util\delay.h ****    __builtin_avr_delay_cycles() is not backward compatible with older
 245:c:\program files (x86)\atmel\studio\7.0\toolchain\avr8\avr8-gnu-toolchain\avr\include\util\delay.h ****    implementations.  In order to get functionality backward compatible
 246:c:\program files (x86)\atmel\studio\7.0\toolchain\avr8\avr8-gnu-toolchain\avr\include\util\delay.h ****    with previous versions, the macro \c __DELAY_BACKWARD_COMPATIBLE__
 247:c:\program files (x86)\atmel\studio\7.0\toolchain\avr8\avr8-gnu-toolchain\avr\include\util\delay.h ****    must be defined before including this header file. Also, the
 248:c:\program files (x86)\atmel\studio\7.0\toolchain\avr8\avr8-gnu-toolchain\avr\include\util\delay.h ****    backward compatible algorithm will be chosen if the code is
 249:c:\program files (x86)\atmel\studio\7.0\toolchain\avr8\avr8-gnu-toolchain\avr\include\util\delay.h ****    compiled in a <em>freestanding environment</em> (GCC option
 250:c:\program files (x86)\atmel\studio\7.0\toolchain\avr8\avr8-gnu-toolchain\avr\include\util\delay.h ****    \c -ffreestanding), as the math functions required for rounding are
 251:c:\program files (x86)\atmel\studio\7.0\toolchain\avr8\avr8-gnu-toolchain\avr\include\util\delay.h ****    not available to the compiler then.
 252:c:\program files (x86)\atmel\studio\7.0\toolchain\avr8\avr8-gnu-toolchain\avr\include\util\delay.h **** 
 253:c:\program files (x86)\atmel\studio\7.0\toolchain\avr8\avr8-gnu-toolchain\avr\include\util\delay.h ****  */
 254:c:\program files (x86)\atmel\studio\7.0\toolchain\avr8\avr8-gnu-toolchain\avr\include\util\delay.h **** void
 255:c:\program files (x86)\atmel\studio\7.0\toolchain\avr8\avr8-gnu-toolchain\avr\include\util\delay.h **** _delay_us(double __us)
 256:c:\program files (x86)\atmel\studio\7.0\toolchain\avr8\avr8-gnu-toolchain\avr\include\util\delay.h **** {
 257:c:\program files (x86)\atmel\studio\7.0\toolchain\avr8\avr8-gnu-toolchain\avr\include\util\delay.h **** 	double __tmp ;
 258:c:\program files (x86)\atmel\studio\7.0\toolchain\avr8\avr8-gnu-toolchain\avr\include\util\delay.h **** #if __HAS_DELAY_CYCLES && defined(__OPTIMIZE__) && \
 259:c:\program files (x86)\atmel\studio\7.0\toolchain\avr8\avr8-gnu-toolchain\avr\include\util\delay.h ****   !defined(__DELAY_BACKWARD_COMPATIBLE__) &&	   \
 260:c:\program files (x86)\atmel\studio\7.0\toolchain\avr8\avr8-gnu-toolchain\avr\include\util\delay.h ****   __STDC_HOSTED__
 261:c:\program files (x86)\atmel\studio\7.0\toolchain\avr8\avr8-gnu-toolchain\avr\include\util\delay.h **** 	uint32_t __ticks_dc;
 262:c:\program files (x86)\atmel\studio\7.0\toolchain\avr8\avr8-gnu-toolchain\avr\include\util\delay.h **** 	extern void __builtin_avr_delay_cycles(unsigned long);
 263:c:\program files (x86)\atmel\studio\7.0\toolchain\avr8\avr8-gnu-toolchain\avr\include\util\delay.h **** 	__tmp = ((F_CPU) / 1e6) * __us;
 264:c:\program files (x86)\atmel\studio\7.0\toolchain\avr8\avr8-gnu-toolchain\avr\include\util\delay.h **** 
 265:c:\program files (x86)\atmel\studio\7.0\toolchain\avr8\avr8-gnu-toolchain\avr\include\util\delay.h **** 	#if defined(__DELAY_ROUND_DOWN__)
 266:c:\program files (x86)\atmel\studio\7.0\toolchain\avr8\avr8-gnu-toolchain\avr\include\util\delay.h **** 		__ticks_dc = (uint32_t)fabs(__tmp);
 267:c:\program files (x86)\atmel\studio\7.0\toolchain\avr8\avr8-gnu-toolchain\avr\include\util\delay.h **** 
 268:c:\program files (x86)\atmel\studio\7.0\toolchain\avr8\avr8-gnu-toolchain\avr\include\util\delay.h **** 	#elif defined(__DELAY_ROUND_CLOSEST__)
 269:c:\program files (x86)\atmel\studio\7.0\toolchain\avr8\avr8-gnu-toolchain\avr\include\util\delay.h **** 		__ticks_dc = (uint32_t)(fabs(__tmp)+0.5);
 270:c:\program files (x86)\atmel\studio\7.0\toolchain\avr8\avr8-gnu-toolchain\avr\include\util\delay.h **** 
 271:c:\program files (x86)\atmel\studio\7.0\toolchain\avr8\avr8-gnu-toolchain\avr\include\util\delay.h **** 	#else
 272:c:\program files (x86)\atmel\studio\7.0\toolchain\avr8\avr8-gnu-toolchain\avr\include\util\delay.h **** 		//round up by default
 273:c:\program files (x86)\atmel\studio\7.0\toolchain\avr8\avr8-gnu-toolchain\avr\include\util\delay.h **** 		__ticks_dc = (uint32_t)(ceil(fabs(__tmp)));
 274:c:\program files (x86)\atmel\studio\7.0\toolchain\avr8\avr8-gnu-toolchain\avr\include\util\delay.h **** 	#endif
 275:c:\program files (x86)\atmel\studio\7.0\toolchain\avr8\avr8-gnu-toolchain\avr\include\util\delay.h **** 
 276:c:\program files (x86)\atmel\studio\7.0\toolchain\avr8\avr8-gnu-toolchain\avr\include\util\delay.h **** 	__builtin_avr_delay_cycles(__ticks_dc);
 263               		.loc 3 276 0
 264 0022 EFE1      		ldi r30,lo8(799)
 265 0024 F3E0      		ldi r31,hi8(799)
 266 0026 3197      	1:	sbiw r30,1
 267 0028 01F4      		brne 1b
 268 002a 00C0      		rjmp .
 269 002c 0000      		nop
 270               	.LVL5:
 271               	.LBE46:
 272               	.LBE45:
 273               	.LBE44:
  68:../src/power.c **** 				break;
  69:../src/power.c **** 		}
  70:../src/power.c **** 		if(leg!=0) delay_us(100);		//The comparators seem to need a bit of time.
  71:../src/power.c **** 		status = ACA.STATUS;
 274               		.loc 1 71 0
 275 002e 8091 8703 		lds r24,903
 276 0032 8983      		std Y+1,r24
  72:../src/power.c **** 		if(leg!=0)//Set MUX back to leg 0.
  73:../src/power.c **** 		{
  74:../src/power.c **** 			ACA.AC0MUXCTRL = AC_MUXNEG_PIN0_gc | AC_MUXPOS_PIN2_gc;
 277               		.loc 1 74 0
 278 0034 80E1      		ldi r24,lo8(16)
 279 0036 8093 8203 		sts 898,r24
  75:../src/power.c **** 			ACA.AC1MUXCTRL = AC_MUXNEG_PIN1_gc | AC_MUXPOS_PIN2_gc;
 280               		.loc 1 75 0
 281 003a 81E1      		ldi r24,lo8(17)
 282 003c 8093 8303 		sts 899,r24
 283               	.LVL6:
 284               	.LBB47:
 285               	.LBB48:
  51:c:\program files (x86)\atmel\studio\7.0\toolchain\avr8\avr8-gnu-toolchain\avr\include\util\atomic.h ****     return 1;
  52:c:\program files (x86)\atmel\studio\7.0\toolchain\avr8\avr8-gnu-toolchain\avr\include\util\atomic.h **** }
  53:c:\program files (x86)\atmel\studio\7.0\toolchain\avr8\avr8-gnu-toolchain\avr\include\util\atomic.h **** 
  54:c:\program files (x86)\atmel\studio\7.0\toolchain\avr8\avr8-gnu-toolchain\avr\include\util\atomic.h **** static __inline__ void __iSeiParam(const uint8_t *__s)
  55:c:\program files (x86)\atmel\studio\7.0\toolchain\avr8\avr8-gnu-toolchain\avr\include\util\atomic.h **** {
  56:c:\program files (x86)\atmel\studio\7.0\toolchain\avr8\avr8-gnu-toolchain\avr\include\util\atomic.h ****     sei();
  57:c:\program files (x86)\atmel\studio\7.0\toolchain\avr8\avr8-gnu-toolchain\avr\include\util\atomic.h ****     __asm__ volatile ("" ::: "memory");
  58:c:\program files (x86)\atmel\studio\7.0\toolchain\avr8\avr8-gnu-toolchain\avr\include\util\atomic.h ****     (void)__s;
  59:c:\program files (x86)\atmel\studio\7.0\toolchain\avr8\avr8-gnu-toolchain\avr\include\util\atomic.h **** }
  60:c:\program files (x86)\atmel\studio\7.0\toolchain\avr8\avr8-gnu-toolchain\avr\include\util\atomic.h **** 
  61:c:\program files (x86)\atmel\studio\7.0\toolchain\avr8\avr8-gnu-toolchain\avr\include\util\atomic.h **** static __inline__ void __iCliParam(const uint8_t *__s)
  62:c:\program files (x86)\atmel\studio\7.0\toolchain\avr8\avr8-gnu-toolchain\avr\include\util\atomic.h **** {
  63:c:\program files (x86)\atmel\studio\7.0\toolchain\avr8\avr8-gnu-toolchain\avr\include\util\atomic.h ****     cli();
  64:c:\program files (x86)\atmel\studio\7.0\toolchain\avr8\avr8-gnu-toolchain\avr\include\util\atomic.h ****     __asm__ volatile ("" ::: "memory");
  65:c:\program files (x86)\atmel\studio\7.0\toolchain\avr8\avr8-gnu-toolchain\avr\include\util\atomic.h ****     (void)__s;
  66:c:\program files (x86)\atmel\studio\7.0\toolchain\avr8\avr8-gnu-toolchain\avr\include\util\atomic.h **** }
  67:c:\program files (x86)\atmel\studio\7.0\toolchain\avr8\avr8-gnu-toolchain\avr\include\util\atomic.h **** 
  68:c:\program files (x86)\atmel\studio\7.0\toolchain\avr8\avr8-gnu-toolchain\avr\include\util\atomic.h **** static __inline__ void __iRestore(const  uint8_t *__s)
  69:c:\program files (x86)\atmel\studio\7.0\toolchain\avr8\avr8-gnu-toolchain\avr\include\util\atomic.h **** {
  70:c:\program files (x86)\atmel\studio\7.0\toolchain\avr8\avr8-gnu-toolchain\avr\include\util\atomic.h ****     SREG = *__s;
 286               		.loc 2 70 0
 287 0040 9FBF      		out __SREG__,r25
  71:c:\program files (x86)\atmel\studio\7.0\toolchain\avr8\avr8-gnu-toolchain\avr\include\util\atomic.h ****     __asm__ volatile ("" ::: "memory");
 288               		.loc 2 71 0
 289               	.LVL7:
 290               	.LBE48:
 291               	.LBE47:
 292               	.LBE41:
  76:../src/power.c **** 		}
  77:../src/power.c **** 	}
  78:../src/power.c **** 	switch (status & AC_WSTATE_gm)
 293               		.loc 1 78 0
 294 0042 8981      		ldd r24,Y+1
 295 0044 807C      		andi r24,lo8(-64)
 296 0046 8034      		cpi r24,lo8(64)
 297 0048 01F0      		breq .L21
 298               	.LVL8:
 299               	.L34:
 300               		.loc 1 78 0 is_stmt 0 discriminator 3
 301 004a 8038      		cpi r24,lo8(-128)
 302 004c 01F0      		breq .L22
 303 004e 8823      		tst r24
 304 0050 01F0      		breq .L33
  79:../src/power.c **** 	{
  80:../src/power.c **** 		case AC_WSTATE_ABOVE_gc:	return 1;
  81:../src/power.c **** 		case AC_WSTATE_INSIDE_gc:	return 0;
  82:../src/power.c **** 		case AC_WSTATE_BELOW_gc:	return -1;
  83:../src/power.c **** 		default:					return 127;
 305               		.loc 1 83 0 is_stmt 1
 306 0052 8FE7      		ldi r24,lo8(127)
 307               	/* epilogue start */
  84:../src/power.c **** 	}
  85:../src/power.c **** }
 308               		.loc 1 85 0
 309 0054 0F90      		pop __tmp_reg__
 310 0056 DF91      		pop r29
 311 0058 CF91      		pop r28
 312 005a 0895      		ret
 313               	.LVL9:
 314               	.L16:
 315               	.LBB51:
  62:../src/power.c **** 				ACA.AC1MUXCTRL = AC_MUXNEG_PIN1_gc | AC_MUXPOS_PIN3_gc;
 316               		.loc 1 62 0
 317 005c 88E1      		ldi r24,lo8(24)
 318               	.LVL10:
 319 005e 8093 8203 		sts 898,r24
  63:../src/power.c **** 				break;
 320               		.loc 1 63 0
 321 0062 89E1      		ldi r24,lo8(25)
 322 0064 8093 8303 		sts 899,r24
  64:../src/power.c **** 			case 2:
 323               		.loc 1 64 0
 324 0068 00C0      		rjmp .L18
 325               	.LVL11:
 326               	.L32:
  70:../src/power.c **** 		status = ACA.STATUS;
 327               		.loc 1 70 0
 328 006a 8111      		cpse r24,__zero_reg__
 329 006c 00C0      		rjmp .L18
  71:../src/power.c **** 		if(leg!=0)//Set MUX back to leg 0.
 330               		.loc 1 71 0
 331 006e 8091 8703 		lds r24,903
 332               	.LVL12:
 333 0072 8983      		std Y+1,r24
 334               	.LVL13:
 335               	.LBB50:
 336               	.LBB49:
  70:c:\program files (x86)\atmel\studio\7.0\toolchain\avr8\avr8-gnu-toolchain\avr\include\util\atomic.h ****     __asm__ volatile ("" ::: "memory");
 337               		.loc 2 70 0
 338 0074 9FBF      		out __SREG__,r25
 339               		.loc 2 71 0
 340               	.LVL14:
 341               	.LBE49:
 342               	.LBE50:
 343               	.LBE51:
  78:../src/power.c **** 	{
 344               		.loc 1 78 0
 345 0076 8981      		ldd r24,Y+1
 346 0078 807C      		andi r24,lo8(-64)
 347 007a 8034      		cpi r24,lo8(64)
 348 007c 01F4      		brne .L34
 349               	.L21:
  81:../src/power.c **** 		case AC_WSTATE_BELOW_gc:	return -1;
 350               		.loc 1 81 0
 351 007e 80E0      		ldi r24,0
 352               	/* epilogue start */
 353               		.loc 1 85 0
 354 0080 0F90      		pop __tmp_reg__
 355 0082 DF91      		pop r29
 356 0084 CF91      		pop r28
 357 0086 0895      		ret
 358               	.L33:
  80:../src/power.c **** 		case AC_WSTATE_INSIDE_gc:	return 0;
 359               		.loc 1 80 0
 360 0088 81E0      		ldi r24,lo8(1)
 361               	/* epilogue start */
 362               		.loc 1 85 0
 363 008a 0F90      		pop __tmp_reg__
 364 008c DF91      		pop r29
 365 008e CF91      		pop r28
 366 0090 0895      		ret
 367               	.L22:
  82:../src/power.c **** 		default:					return 127;
 368               		.loc 1 82 0
 369 0092 8FEF      		ldi r24,lo8(-1)
 370               	/* epilogue start */
 371               		.loc 1 85 0
 372 0094 0F90      		pop __tmp_reg__
 373 0096 DF91      		pop r29
 374 0098 CF91      		pop r28
 375 009a 0895      		ret
 376               		.cfi_endproc
 377               	.LFE32:
 379               		.section	.text.legs_powered,"ax",@progbits
 380               	.global	legs_powered
 382               	legs_powered:
 383               	.LFB33:
  86:../src/power.c **** 
  87:../src/power.c **** uint8_t legs_powered()
  88:../src/power.c **** {
 384               		.loc 1 88 0
 385               		.cfi_startproc
 386 0000 CF93      		push r28
 387               	.LCFI4:
 388               		.cfi_def_cfa_offset 4
 389               		.cfi_offset 28, -3
 390 0002 DF93      		push r29
 391               	.LCFI5:
 392               		.cfi_def_cfa_offset 5
 393               		.cfi_offset 29, -4
 394 0004 1F92      		push __zero_reg__
 395 0006 1F92      		push __zero_reg__
 396               	.LCFI6:
 397               		.cfi_def_cfa_offset 7
 398 0008 CDB7      		in r28,__SP_L__
 399 000a DEB7      		in r29,__SP_H__
 400               	.LCFI7:
 401               		.cfi_def_cfa_register 28
 402               	/* prologue: function */
 403               	/* frame size = 2 */
 404               	/* stack size = 4 */
 405               	.L__stack_usage = 4
 406               	.LVL15:
 407               	.LBB52:
 408               	.LBB53:
 409               	.LBB54:
  57:../src/power.c **** 	{
 410               		.loc 1 57 0
 411 000c 8FB7      		in r24,__SREG__
 412               	.LVL16:
 413               	.LBB55:
 414               	.LBB56:
  50:c:\program files (x86)\atmel\studio\7.0\toolchain\avr8\avr8-gnu-toolchain\avr\include\util\atomic.h ****     return 1;
 415               		.loc 2 50 0
 416               	/* #APP */
 417               	 ;  50 "c:\program files (x86)\atmel\studio\7.0\toolchain\avr8\avr8-gnu-toolchain\avr\include\util\
 418 000e F894      		cli
 419               	 ;  0 "" 2
 420               	.LVL17:
 421               	/* #NOAPP */
 422               	.LBE56:
 423               	.LBE55:
  71:../src/power.c **** 		if(leg!=0)//Set MUX back to leg 0.
 424               		.loc 1 71 0
 425 0010 9091 8703 		lds r25,903
 426 0014 9A83      		std Y+2,r25
 427               	.LVL18:
 428               	.LBB57:
 429               	.LBB58:
  70:c:\program files (x86)\atmel\studio\7.0\toolchain\avr8\avr8-gnu-toolchain\avr\include\util\atomic.h ****     __asm__ volatile ("" ::: "memory");
 430               		.loc 2 70 0
 431 0016 8FBF      		out __SREG__,r24
 432               		.loc 2 71 0
 433               	.LVL19:
 434               	.LBE58:
 435               	.LBE57:
 436               	.LBE54:
  78:../src/power.c **** 	{
 437               		.loc 1 78 0
 438 0018 8A81      		ldd r24,Y+2
 439 001a 807C      		andi r24,lo8(-64)
 440 001c 01F0      		breq .L37
 441               	.LVL20:
 442               	.LBE53:
 443               	.LBE52:
  89:../src/power.c **** 	if ((leg_status(0) ==  1 || leg_status(1) ==  1 || leg_status(2) ==  1) &&
 444               		.loc 1 89 0
 445 001e 81E0      		ldi r24,lo8(1)
 446 0020 0E94 0000 		call leg_status
 447               	.LVL21:
 448 0024 8130      		cpi r24,lo8(1)
 449 0026 01F0      		breq .L37
 450               		.loc 1 89 0 is_stmt 0 discriminator 4
 451 0028 82E0      		ldi r24,lo8(2)
 452 002a 0E94 0000 		call leg_status
 453               	.LVL22:
 454 002e 8130      		cpi r24,lo8(1)
 455 0030 01F0      		breq .L37
 456               	.LVL23:
 457               	.L44:
  90:../src/power.c **** 		(leg_status(0) == -1 || leg_status(1) == -1 || leg_status(2) == -1))
  91:../src/power.c **** 		return 1;
  92:../src/power.c **** 	return 0;
 458               		.loc 1 92 0 is_stmt 1
 459 0032 90E0      		ldi r25,0
 460               	.L50:
  93:../src/power.c **** }...
 461               		.loc 1 93 0
 462 0034 892F      		mov r24,r25
 463               	/* epilogue start */
 464 0036 0F90      		pop __tmp_reg__
 465 0038 0F90      		pop __tmp_reg__
 466 003a DF91      		pop r29
 467 003c CF91      		pop r28
 468 003e 0895      		ret
 469               	.LVL24:
 470               	.L37:
 471               	.LBB59:
 472               	.LBB60:
 473               	.LBB61:
  57:../src/power.c **** 	ATOMIC_BLOCK(ATOMIC_RESTORESTATE)
 474               		.loc 1 57 0 discriminator 5
 475 0040 8FB7      		in r24,__SREG__
 476               	.LVL25:
 477               	.LBB62:
 478               	.LBB63:
  50:c:\program files (x86)\atmel\studio\7.0\toolchain\avr8\avr8-gnu-toolchain\avr\include\util\atomic.h ****     return 1;
 479               		.loc 2 50 0 discriminator 5
 480               	/* #APP */
 481               	 ;  50 "c:\program files (x86)\atmel\studio\7.0\toolchain\avr8\avr8-gnu-toolchain\avr\include\util\
 482 0042 F894      		cli
 483               	 ;  0 "" 2
 484               	.LVL26:
 485               	/* #NOAPP */
 486               	.LBE63:
 487               	.LBE62:
  71:../src/power.c **** 		status = ACA.STATUS;
 488               		.loc 1 71 0 discriminator 5
 489 0044 9091 8703 		lds r25,903
 490 0048 9983      		std Y+1,r25
 491               	.LVL27:
 492               	.LBB64:
 493               	.LBB65:
  70:c:\program files (x86)\atmel\studio\7.0\toolchain\avr8\avr8-gnu-toolchain\avr\include\util\atomic.h ****     __asm__ volatile ("" ::: "memory");
 494               		.loc 2 70 0 discriminator 5
 495 004a 8FBF      		out __SREG__,r24
 496               		.loc 2 71 0 discriminator 5
 497               	.LVL28:
 498               	.LBE65:
 499               	.LBE64:
 500               	.LBE61:
  78:../src/power.c **** 	switch (status & AC_WSTATE_gm)
 501               		.loc 1 78 0 discriminator 5
 502 004c 8981      		ldd r24,Y+1
 503 004e 807C      		andi r24,lo8(-64)
 504 0050 8038      		cpi r24,lo8(-128)
 505 0052 01F0      		breq .L46
 506               	.LVL29:
 507               	.LBE60:
 508               	.LBE59:
  90:../src/power.c **** 		(leg_status(0) == -1 || leg_status(1) == -1 || leg_status(2) == -1))
 509               		.loc 1 90 0
 510 0054 81E0      		ldi r24,lo8(1)
 511 0056 0E94 0000 		call leg_status
 512               	.LVL30:
 513 005a 8F3F      		cpi r24,lo8(-1)
 514 005c 01F0      		breq .L46
  90:../src/power.c **** 		(leg_status(0) == -1 || leg_status(1) == -1 || leg_status(2) == -1))
 515               		.loc 1 90 0 is_stmt 0 discriminator 1
 516 005e 82E0      		ldi r24,lo8(2)
 517 0060 0E94 0000 		call leg_status
 518               	.LVL31:
  91:../src/power.c **** 		return 1;
 519               		.loc 1 91 0 is_stmt 1 discriminator 1
 520 0064 91E0      		ldi r25,lo8(1)
 521 0066 8F3F      		cpi r24,lo8(-1)
 522 0068 01F4      		brne .L44
 523 006a 00C0      		rjmp .L50
 524               	.L46:
  91:../src/power.c **** 		return 1;
 525               		.loc 1 91 0 is_stmt 0
 526 006c 91E0      		ldi r25,lo8(1)
 527               		.loc 1 93 0 is_stmt 1
 528 006e 892F      		mov r24,r25
 529               	/* epilogue start */
 530 0070 0F90      		pop __tmp_reg__
 531 0072 0F90      		pop __tmp_reg__
 532 0074 DF91      		pop r29
 533 0076 CF91      		pop r28
 534 0078 0895      		ret
 535               		.cfi_endproc
 536               	.LFE33:
 538               		.comm	rtc_epoch,2,1
 539               		.comm	droplet_ID,2,1
 540               		.text
 541               	.Letext0:
 542               		.file 4 "c:\\program files (x86)\\atmel\\studio\\7.0\\toolchain\\avr8\\avr8-gnu-toolchain\\avr\\in
 543               		.file 5 "C:/Program Files (x86)/Atmel/Studio/7.0/Packs/atmel/XMEGAA_DFP/1.1.68/include/avr/iox128a
 544               		.file 6 "../include/droplet_base.h"